ARM GAS  /tmp/ccb4IaAe.s 			page 1


   1              		.syntax unified
   2              		.cpu cortex-m0plus
   3              		.fpu softvfp
   4              		.eabi_attribute 20, 1
   5              		.eabi_attribute 21, 1
   6              		.eabi_attribute 23, 3
   7              		.eabi_attribute 24, 1
   8              		.eabi_attribute 25, 1
   9              		.eabi_attribute 26, 1
  10              		.eabi_attribute 30, 1
  11              		.eabi_attribute 34, 0
  12              		.eabi_attribute 18, 4
  13              		.thumb
  14              		.syntax unified
  15              		.file	"main.c"
  16              		.text
  17              	.Ltext0:
  18              		.cfi_sections	.debug_frame
  19              		.section	.text.MX_GPIO_Init,"ax",%progbits
  20              		.align	2
  21              		.code	16
  22              		.thumb_func
  24              	MX_GPIO_Init:
  25              	.LFB315:
  26              		.file 1 "Core/Src/main.c"
   1:Core/Src/main.c **** /* USER CODE BEGIN Header */
   2:Core/Src/main.c **** /**
   3:Core/Src/main.c ****   ******************************************************************************
   4:Core/Src/main.c ****   * @file           : main.c
   5:Core/Src/main.c ****   * @brief          : Main program body
   6:Core/Src/main.c ****   ******************************************************************************
   7:Core/Src/main.c ****   * @attention
   8:Core/Src/main.c ****   *
   9:Core/Src/main.c ****   * Copyright (c) 2022 STMicroelectronics.
  10:Core/Src/main.c ****   * All rights reserved.
  11:Core/Src/main.c ****   *
  12:Core/Src/main.c ****   * This software is licensed under terms that can be found in the LICENSE file
  13:Core/Src/main.c ****   * in the root directory of this software component.
  14:Core/Src/main.c ****   * If no LICENSE file comes with this software, it is provided AS-IS.
  15:Core/Src/main.c ****   *
  16:Core/Src/main.c ****   ******************************************************************************
  17:Core/Src/main.c ****   */
  18:Core/Src/main.c **** /* USER CODE END Header */
  19:Core/Src/main.c **** /* Includes ------------------------------------------------------------------*/
  20:Core/Src/main.c **** #include "main.h"
  21:Core/Src/main.c **** 
  22:Core/Src/main.c **** /* Private includes ----------------------------------------------------------*/
  23:Core/Src/main.c **** /* USER CODE BEGIN Includes */
  24:Core/Src/main.c **** #include "board.h"
  25:Core/Src/main.c **** /* USER CODE END Includes */
  26:Core/Src/main.c **** 
  27:Core/Src/main.c **** /* Private typedef -----------------------------------------------------------*/
  28:Core/Src/main.c **** /* USER CODE BEGIN PTD */
  29:Core/Src/main.c **** 
  30:Core/Src/main.c **** /* USER CODE END PTD */
  31:Core/Src/main.c **** 
  32:Core/Src/main.c **** /* Private define ------------------------------------------------------------*/
ARM GAS  /tmp/ccb4IaAe.s 			page 2


  33:Core/Src/main.c **** /* USER CODE BEGIN PD */
  34:Core/Src/main.c **** /* USER CODE END PD */
  35:Core/Src/main.c **** 
  36:Core/Src/main.c **** /* Private macro -------------------------------------------------------------*/
  37:Core/Src/main.c **** /* USER CODE BEGIN PM */
  38:Core/Src/main.c **** 
  39:Core/Src/main.c **** /* USER CODE END PM */
  40:Core/Src/main.c **** 
  41:Core/Src/main.c **** /* Private variables ---------------------------------------------------------*/
  42:Core/Src/main.c **** I2C_HandleTypeDef hi2c1;
  43:Core/Src/main.c **** 
  44:Core/Src/main.c **** UART_HandleTypeDef huart1;
  45:Core/Src/main.c **** 
  46:Core/Src/main.c **** /* USER CODE BEGIN PV */
  47:Core/Src/main.c **** 
  48:Core/Src/main.c **** /* USER CODE END PV */
  49:Core/Src/main.c **** 
  50:Core/Src/main.c **** /* Private function prototypes -----------------------------------------------*/
  51:Core/Src/main.c **** void SystemClock_Config(void);
  52:Core/Src/main.c **** static void MX_GPIO_Init(void);
  53:Core/Src/main.c **** static void MX_I2C1_Init(void);
  54:Core/Src/main.c **** static void MX_USART1_UART_Init(void);
  55:Core/Src/main.c **** /* USER CODE BEGIN PFP */
  56:Core/Src/main.c **** 
  57:Core/Src/main.c **** /* USER CODE END PFP */
  58:Core/Src/main.c **** 
  59:Core/Src/main.c **** /* Private user code ---------------------------------------------------------*/
  60:Core/Src/main.c **** /* USER CODE BEGIN 0 */
  61:Core/Src/main.c **** 
  62:Core/Src/main.c **** /* USER CODE END 0 */
  63:Core/Src/main.c **** 
  64:Core/Src/main.c **** /**
  65:Core/Src/main.c ****   * @brief  The application entry point.
  66:Core/Src/main.c ****   * @retval int
  67:Core/Src/main.c ****   */
  68:Core/Src/main.c **** int main(void)
  69:Core/Src/main.c **** {
  70:Core/Src/main.c ****   /* USER CODE BEGIN 1 */
  71:Core/Src/main.c **** 
  72:Core/Src/main.c ****   /* USER CODE END 1 */
  73:Core/Src/main.c **** 
  74:Core/Src/main.c ****   /* MCU Configuration--------------------------------------------------------*/
  75:Core/Src/main.c **** 
  76:Core/Src/main.c ****   /* Reset of all peripherals, Initializes the Flash interface and the Systick. */
  77:Core/Src/main.c ****   HAL_Init();
  78:Core/Src/main.c **** 
  79:Core/Src/main.c ****   /* USER CODE BEGIN Init */
  80:Core/Src/main.c **** 
  81:Core/Src/main.c ****   /* USER CODE END Init */
  82:Core/Src/main.c **** 
  83:Core/Src/main.c ****   /* Configure the system clock */
  84:Core/Src/main.c ****   SystemClock_Config();
  85:Core/Src/main.c **** 
  86:Core/Src/main.c ****   /* USER CODE BEGIN SysInit */
  87:Core/Src/main.c **** 
  88:Core/Src/main.c ****   /* USER CODE END SysInit */
  89:Core/Src/main.c **** 
ARM GAS  /tmp/ccb4IaAe.s 			page 3


  90:Core/Src/main.c ****   /* Initialize all configured peripherals */
  91:Core/Src/main.c ****   MX_GPIO_Init();
  92:Core/Src/main.c ****   MX_I2C1_Init();
  93:Core/Src/main.c ****   MX_USART1_UART_Init();
  94:Core/Src/main.c ****   /* USER CODE BEGIN 2 */
  95:Core/Src/main.c ****   BOARD_Init();
  96:Core/Src/main.c ****   /* USER CODE END 2 */
  97:Core/Src/main.c **** 
  98:Core/Src/main.c ****   /* Infinite loop */
  99:Core/Src/main.c ****   /* USER CODE BEGIN WHILE */
 100:Core/Src/main.c ****   while (1)
 101:Core/Src/main.c ****   {
 102:Core/Src/main.c ****     /* USER CODE END WHILE */
 103:Core/Src/main.c ****     BOARD_Loop();
 104:Core/Src/main.c ****     /* USER CODE BEGIN 3 */
 105:Core/Src/main.c ****   }
 106:Core/Src/main.c ****   /* USER CODE END 3 */
 107:Core/Src/main.c **** }
 108:Core/Src/main.c **** 
 109:Core/Src/main.c **** /**
 110:Core/Src/main.c ****   * @brief System Clock Configuration
 111:Core/Src/main.c ****   * @retval None
 112:Core/Src/main.c ****   */
 113:Core/Src/main.c **** void SystemClock_Config(void)
 114:Core/Src/main.c **** {
 115:Core/Src/main.c ****   RCC_OscInitTypeDef RCC_OscInitStruct = {0};
 116:Core/Src/main.c ****   RCC_ClkInitTypeDef RCC_ClkInitStruct = {0};
 117:Core/Src/main.c **** 
 118:Core/Src/main.c ****   /** Configure the main internal regulator output voltage
 119:Core/Src/main.c ****   */
 120:Core/Src/main.c ****   HAL_PWREx_ControlVoltageScaling(PWR_REGULATOR_VOLTAGE_SCALE1);
 121:Core/Src/main.c **** 
 122:Core/Src/main.c ****   /** Initializes the RCC Oscillators according to the specified parameters
 123:Core/Src/main.c ****   * in the RCC_OscInitTypeDef structure.
 124:Core/Src/main.c ****   */
 125:Core/Src/main.c ****   RCC_OscInitStruct.OscillatorType = RCC_OSCILLATORTYPE_HSI;
 126:Core/Src/main.c ****   RCC_OscInitStruct.HSIState = RCC_HSI_ON;
 127:Core/Src/main.c ****   RCC_OscInitStruct.HSIDiv = RCC_HSI_DIV1;
 128:Core/Src/main.c ****   RCC_OscInitStruct.HSICalibrationValue = RCC_HSICALIBRATION_DEFAULT;
 129:Core/Src/main.c ****   RCC_OscInitStruct.PLL.PLLState = RCC_PLL_ON;
 130:Core/Src/main.c ****   RCC_OscInitStruct.PLL.PLLSource = RCC_PLLSOURCE_HSI;
 131:Core/Src/main.c ****   RCC_OscInitStruct.PLL.PLLM = RCC_PLLM_DIV1;
 132:Core/Src/main.c ****   RCC_OscInitStruct.PLL.PLLN = 8;
 133:Core/Src/main.c ****   RCC_OscInitStruct.PLL.PLLP = RCC_PLLP_DIV2;
 134:Core/Src/main.c ****   RCC_OscInitStruct.PLL.PLLR = RCC_PLLR_DIV2;
 135:Core/Src/main.c ****   if (HAL_RCC_OscConfig(&RCC_OscInitStruct) != HAL_OK)
 136:Core/Src/main.c ****   {
 137:Core/Src/main.c ****     Error_Handler();
 138:Core/Src/main.c ****   }
 139:Core/Src/main.c **** 
 140:Core/Src/main.c ****   /** Initializes the CPU, AHB and APB buses clocks
 141:Core/Src/main.c ****   */
 142:Core/Src/main.c ****   RCC_ClkInitStruct.ClockType = RCC_CLOCKTYPE_HCLK|RCC_CLOCKTYPE_SYSCLK
 143:Core/Src/main.c ****                               |RCC_CLOCKTYPE_PCLK1;
 144:Core/Src/main.c ****   RCC_ClkInitStruct.SYSCLKSource = RCC_SYSCLKSOURCE_PLLCLK;
 145:Core/Src/main.c ****   RCC_ClkInitStruct.AHBCLKDivider = RCC_SYSCLK_DIV1;
 146:Core/Src/main.c ****   RCC_ClkInitStruct.APB1CLKDivider = RCC_HCLK_DIV1;
ARM GAS  /tmp/ccb4IaAe.s 			page 4


 147:Core/Src/main.c **** 
 148:Core/Src/main.c ****   if (HAL_RCC_ClockConfig(&RCC_ClkInitStruct, FLASH_LATENCY_2) != HAL_OK)
 149:Core/Src/main.c ****   {
 150:Core/Src/main.c ****     Error_Handler();
 151:Core/Src/main.c ****   }
 152:Core/Src/main.c **** }
 153:Core/Src/main.c **** 
 154:Core/Src/main.c **** /**
 155:Core/Src/main.c ****   * @brief I2C1 Initialization Function
 156:Core/Src/main.c ****   * @param None
 157:Core/Src/main.c ****   * @retval None
 158:Core/Src/main.c ****   */
 159:Core/Src/main.c **** static void MX_I2C1_Init(void)
 160:Core/Src/main.c **** {
 161:Core/Src/main.c **** 
 162:Core/Src/main.c ****   /* USER CODE BEGIN I2C1_Init 0 */
 163:Core/Src/main.c **** 
 164:Core/Src/main.c ****   /* USER CODE END I2C1_Init 0 */
 165:Core/Src/main.c **** 
 166:Core/Src/main.c ****   /* USER CODE BEGIN I2C1_Init 1 */
 167:Core/Src/main.c **** 
 168:Core/Src/main.c ****   /* USER CODE END I2C1_Init 1 */
 169:Core/Src/main.c ****   hi2c1.Instance = I2C1;
 170:Core/Src/main.c ****   hi2c1.Init.Timing = 0x10707DBC;
 171:Core/Src/main.c ****   hi2c1.Init.OwnAddress1 = 0;
 172:Core/Src/main.c ****   hi2c1.Init.AddressingMode = I2C_ADDRESSINGMODE_7BIT;
 173:Core/Src/main.c ****   hi2c1.Init.DualAddressMode = I2C_DUALADDRESS_DISABLE;
 174:Core/Src/main.c ****   hi2c1.Init.OwnAddress2 = 0;
 175:Core/Src/main.c ****   hi2c1.Init.OwnAddress2Masks = I2C_OA2_NOMASK;
 176:Core/Src/main.c ****   hi2c1.Init.GeneralCallMode = I2C_GENERALCALL_DISABLE;
 177:Core/Src/main.c ****   hi2c1.Init.NoStretchMode = I2C_NOSTRETCH_DISABLE;
 178:Core/Src/main.c ****   if (HAL_I2C_Init(&hi2c1) != HAL_OK)
 179:Core/Src/main.c ****   {
 180:Core/Src/main.c ****     Error_Handler();
 181:Core/Src/main.c ****   }
 182:Core/Src/main.c **** 
 183:Core/Src/main.c ****   /** Configure Analogue filter
 184:Core/Src/main.c ****   */
 185:Core/Src/main.c ****   if (HAL_I2CEx_ConfigAnalogFilter(&hi2c1, I2C_ANALOGFILTER_ENABLE) != HAL_OK)
 186:Core/Src/main.c ****   {
 187:Core/Src/main.c ****     Error_Handler();
 188:Core/Src/main.c ****   }
 189:Core/Src/main.c **** 
 190:Core/Src/main.c ****   /** Configure Digital filter
 191:Core/Src/main.c ****   */
 192:Core/Src/main.c ****   if (HAL_I2CEx_ConfigDigitalFilter(&hi2c1, 0) != HAL_OK)
 193:Core/Src/main.c ****   {
 194:Core/Src/main.c ****     Error_Handler();
 195:Core/Src/main.c ****   }
 196:Core/Src/main.c ****   /* USER CODE BEGIN I2C1_Init 2 */
 197:Core/Src/main.c **** 
 198:Core/Src/main.c ****   /* USER CODE END I2C1_Init 2 */
 199:Core/Src/main.c **** 
 200:Core/Src/main.c **** }
 201:Core/Src/main.c **** 
 202:Core/Src/main.c **** /**
 203:Core/Src/main.c ****   * @brief USART1 Initialization Function
ARM GAS  /tmp/ccb4IaAe.s 			page 5


 204:Core/Src/main.c ****   * @param None
 205:Core/Src/main.c ****   * @retval None
 206:Core/Src/main.c ****   */
 207:Core/Src/main.c **** static void MX_USART1_UART_Init(void)
 208:Core/Src/main.c **** {
 209:Core/Src/main.c **** 
 210:Core/Src/main.c ****   /* USER CODE BEGIN USART1_Init 0 */
 211:Core/Src/main.c **** 
 212:Core/Src/main.c ****   /* USER CODE END USART1_Init 0 */
 213:Core/Src/main.c **** 
 214:Core/Src/main.c ****   /* USER CODE BEGIN USART1_Init 1 */
 215:Core/Src/main.c **** 
 216:Core/Src/main.c ****   /* USER CODE END USART1_Init 1 */
 217:Core/Src/main.c ****   huart1.Instance = USART1;
 218:Core/Src/main.c ****   huart1.Init.BaudRate = 115200;
 219:Core/Src/main.c ****   huart1.Init.WordLength = UART_WORDLENGTH_8B;
 220:Core/Src/main.c ****   huart1.Init.StopBits = UART_STOPBITS_1;
 221:Core/Src/main.c ****   huart1.Init.Parity = UART_PARITY_NONE;
 222:Core/Src/main.c ****   huart1.Init.Mode = UART_MODE_TX_RX;
 223:Core/Src/main.c ****   huart1.Init.HwFlowCtl = UART_HWCONTROL_NONE;
 224:Core/Src/main.c ****   huart1.Init.OverSampling = UART_OVERSAMPLING_16;
 225:Core/Src/main.c ****   huart1.Init.OneBitSampling = UART_ONE_BIT_SAMPLE_DISABLE;
 226:Core/Src/main.c ****   huart1.Init.ClockPrescaler = UART_PRESCALER_DIV1;
 227:Core/Src/main.c ****   huart1.AdvancedInit.AdvFeatureInit = UART_ADVFEATURE_NO_INIT;
 228:Core/Src/main.c ****   if (HAL_UART_Init(&huart1) != HAL_OK)
 229:Core/Src/main.c ****   {
 230:Core/Src/main.c ****     Error_Handler();
 231:Core/Src/main.c ****   }
 232:Core/Src/main.c ****   if (HAL_UARTEx_SetTxFifoThreshold(&huart1, UART_TXFIFO_THRESHOLD_1_8) != HAL_OK)
 233:Core/Src/main.c ****   {
 234:Core/Src/main.c ****     Error_Handler();
 235:Core/Src/main.c ****   }
 236:Core/Src/main.c ****   if (HAL_UARTEx_SetRxFifoThreshold(&huart1, UART_RXFIFO_THRESHOLD_1_8) != HAL_OK)
 237:Core/Src/main.c ****   {
 238:Core/Src/main.c ****     Error_Handler();
 239:Core/Src/main.c ****   }
 240:Core/Src/main.c ****   if (HAL_UARTEx_DisableFifoMode(&huart1) != HAL_OK)
 241:Core/Src/main.c ****   {
 242:Core/Src/main.c ****     Error_Handler();
 243:Core/Src/main.c ****   }
 244:Core/Src/main.c ****   /* USER CODE BEGIN USART1_Init 2 */
 245:Core/Src/main.c **** 
 246:Core/Src/main.c ****   /* USER CODE END USART1_Init 2 */
 247:Core/Src/main.c **** 
 248:Core/Src/main.c **** }
 249:Core/Src/main.c **** 
 250:Core/Src/main.c **** /**
 251:Core/Src/main.c ****   * @brief GPIO Initialization Function
 252:Core/Src/main.c ****   * @param None
 253:Core/Src/main.c ****   * @retval None
 254:Core/Src/main.c ****   */
 255:Core/Src/main.c **** static void MX_GPIO_Init(void)
 256:Core/Src/main.c **** {
  27              		.loc 1 256 0
  28              		.cfi_startproc
  29              		@ args = 0, pretend = 0, frame = 32
  30              		@ frame_needed = 0, uses_anonymous_args = 0
ARM GAS  /tmp/ccb4IaAe.s 			page 6


  31 0000 F0B5     		push	{r4, r5, r6, r7, lr}
  32              	.LCFI0:
  33              		.cfi_def_cfa_offset 20
  34              		.cfi_offset 4, -20
  35              		.cfi_offset 5, -16
  36              		.cfi_offset 6, -12
  37              		.cfi_offset 7, -8
  38              		.cfi_offset 14, -4
  39 0002 89B0     		sub	sp, sp, #36
  40              	.LCFI1:
  41              		.cfi_def_cfa_offset 56
 257:Core/Src/main.c ****   GPIO_InitTypeDef GPIO_InitStruct = {0};
  42              		.loc 1 257 0
  43 0004 1422     		movs	r2, #20
  44 0006 0021     		movs	r1, #0
  45 0008 03A8     		add	r0, sp, #12
  46 000a FFF7FEFF 		bl	memset
  47              	.LVL0:
  48              	.LBB4:
 258:Core/Src/main.c **** 
 259:Core/Src/main.c ****   /* GPIO Ports Clock Enable */
 260:Core/Src/main.c ****   __HAL_RCC_GPIOC_CLK_ENABLE();
  49              		.loc 1 260 0
  50 000e 214B     		ldr	r3, .L2
  51 0010 596B     		ldr	r1, [r3, #52]
  52 0012 0420     		movs	r0, #4
  53 0014 0143     		orrs	r1, r0
  54 0016 5963     		str	r1, [r3, #52]
  55 0018 5A6B     		ldr	r2, [r3, #52]
  56 001a 0240     		ands	r2, r0
  57 001c 0092     		str	r2, [sp]
  58 001e 009A     		ldr	r2, [sp]
  59              	.LBE4:
  60              	.LBB5:
 261:Core/Src/main.c ****   __HAL_RCC_GPIOA_CLK_ENABLE();
  61              		.loc 1 261 0
  62 0020 5A6B     		ldr	r2, [r3, #52]
  63 0022 0125     		movs	r5, #1
  64 0024 2A43     		orrs	r2, r5
  65 0026 5A63     		str	r2, [r3, #52]
  66 0028 5A6B     		ldr	r2, [r3, #52]
  67 002a 2A40     		ands	r2, r5
  68 002c 0192     		str	r2, [sp, #4]
  69 002e 019A     		ldr	r2, [sp, #4]
  70              	.LBE5:
  71              	.LBB6:
 262:Core/Src/main.c ****   __HAL_RCC_GPIOB_CLK_ENABLE();
  72              		.loc 1 262 0
  73 0030 5A6B     		ldr	r2, [r3, #52]
  74 0032 0221     		movs	r1, #2
  75 0034 0A43     		orrs	r2, r1
  76 0036 5A63     		str	r2, [r3, #52]
  77 0038 5B6B     		ldr	r3, [r3, #52]
  78 003a 0B40     		ands	r3, r1
  79 003c 0293     		str	r3, [sp, #8]
  80 003e 029B     		ldr	r3, [sp, #8]
  81              	.LBE6:
ARM GAS  /tmp/ccb4IaAe.s 			page 7


 263:Core/Src/main.c **** 
 264:Core/Src/main.c ****   /*Configure GPIO pin Output Level */
 265:Core/Src/main.c ****   HAL_GPIO_WritePin(LED_BLUE_GPIO_Port, LED_BLUE_Pin, GPIO_PIN_SET);
  82              		.loc 1 265 0
  83 0040 8024     		movs	r4, #128
  84 0042 A401     		lsls	r4, r4, #6
  85 0044 144E     		ldr	r6, .L2+4
  86 0046 0122     		movs	r2, #1
  87 0048 2100     		movs	r1, r4
  88 004a 3000     		movs	r0, r6
  89 004c FFF7FEFF 		bl	HAL_GPIO_WritePin
  90              	.LVL1:
 266:Core/Src/main.c **** 
 267:Core/Src/main.c ****   /*Configure GPIO pin Output Level */
 268:Core/Src/main.c ****   HAL_GPIO_WritePin(LED_RED_GPIO_Port, LED_RED_Pin, GPIO_PIN_RESET);
  91              		.loc 1 268 0
  92 0050 A027     		movs	r7, #160
  93 0052 FF05     		lsls	r7, r7, #23
  94 0054 0022     		movs	r2, #0
  95 0056 0121     		movs	r1, #1
  96 0058 3800     		movs	r0, r7
  97 005a FFF7FEFF 		bl	HAL_GPIO_WritePin
  98              	.LVL2:
 269:Core/Src/main.c **** 
 270:Core/Src/main.c ****   /*Configure GPIO pin : LED_BLUE_Pin */
 271:Core/Src/main.c ****   GPIO_InitStruct.Pin = LED_BLUE_Pin;
  99              		.loc 1 271 0
 100 005e 0394     		str	r4, [sp, #12]
 272:Core/Src/main.c ****   GPIO_InitStruct.Mode = GPIO_MODE_OUTPUT_PP;
 101              		.loc 1 272 0
 102 0060 0495     		str	r5, [sp, #16]
 273:Core/Src/main.c ****   GPIO_InitStruct.Pull = GPIO_NOPULL;
 103              		.loc 1 273 0
 104 0062 0024     		movs	r4, #0
 105 0064 0594     		str	r4, [sp, #20]
 274:Core/Src/main.c ****   GPIO_InitStruct.Speed = GPIO_SPEED_FREQ_LOW;
 106              		.loc 1 274 0
 107 0066 0694     		str	r4, [sp, #24]
 275:Core/Src/main.c ****   HAL_GPIO_Init(LED_BLUE_GPIO_Port, &GPIO_InitStruct);
 108              		.loc 1 275 0
 109 0068 03A9     		add	r1, sp, #12
 110 006a 3000     		movs	r0, r6
 111 006c FFF7FEFF 		bl	HAL_GPIO_Init
 112              	.LVL3:
 276:Core/Src/main.c **** 
 277:Core/Src/main.c ****   /*Configure GPIO pin : LED_RED_Pin */
 278:Core/Src/main.c ****   GPIO_InitStruct.Pin = LED_RED_Pin;
 113              		.loc 1 278 0
 114 0070 0395     		str	r5, [sp, #12]
 279:Core/Src/main.c ****   GPIO_InitStruct.Mode = GPIO_MODE_OUTPUT_PP;
 115              		.loc 1 279 0
 116 0072 0495     		str	r5, [sp, #16]
 280:Core/Src/main.c ****   GPIO_InitStruct.Pull = GPIO_NOPULL;
 117              		.loc 1 280 0
 118 0074 0594     		str	r4, [sp, #20]
 281:Core/Src/main.c ****   GPIO_InitStruct.Speed = GPIO_SPEED_FREQ_LOW;
 119              		.loc 1 281 0
ARM GAS  /tmp/ccb4IaAe.s 			page 8


 120 0076 0694     		str	r4, [sp, #24]
 282:Core/Src/main.c ****   HAL_GPIO_Init(LED_RED_GPIO_Port, &GPIO_InitStruct);
 121              		.loc 1 282 0
 122 0078 03A9     		add	r1, sp, #12
 123 007a 3800     		movs	r0, r7
 124 007c FFF7FEFF 		bl	HAL_GPIO_Init
 125              	.LVL4:
 283:Core/Src/main.c **** 
 284:Core/Src/main.c ****   /*Configure GPIO pins : BUTTON_1_Pin BUTTON_2_Pin */
 285:Core/Src/main.c ****   GPIO_InitStruct.Pin = BUTTON_1_Pin|BUTTON_2_Pin;
 126              		.loc 1 285 0
 127 0080 C023     		movs	r3, #192
 128 0082 0393     		str	r3, [sp, #12]
 286:Core/Src/main.c ****   GPIO_InitStruct.Mode = GPIO_MODE_INPUT;
 129              		.loc 1 286 0
 130 0084 0494     		str	r4, [sp, #16]
 287:Core/Src/main.c ****   GPIO_InitStruct.Pull = GPIO_NOPULL;
 131              		.loc 1 287 0
 132 0086 0594     		str	r4, [sp, #20]
 288:Core/Src/main.c ****   HAL_GPIO_Init(GPIOC, &GPIO_InitStruct);
 133              		.loc 1 288 0
 134 0088 03A9     		add	r1, sp, #12
 135 008a 3000     		movs	r0, r6
 136 008c FFF7FEFF 		bl	HAL_GPIO_Init
 137              	.LVL5:
 289:Core/Src/main.c **** 
 290:Core/Src/main.c **** }
 138              		.loc 1 290 0
 139 0090 09B0     		add	sp, sp, #36
 140              		@ sp needed
 141 0092 F0BD     		pop	{r4, r5, r6, r7, pc}
 142              	.L3:
 143              		.align	2
 144              	.L2:
 145 0094 00100240 		.word	1073876992
 146 0098 00080050 		.word	1342179328
 147              		.cfi_endproc
 148              	.LFE315:
 150              		.section	.text.Error_Handler,"ax",%progbits
 151              		.align	2
 152              		.global	Error_Handler
 153              		.code	16
 154              		.thumb_func
 156              	Error_Handler:
 157              	.LFB316:
 291:Core/Src/main.c **** 
 292:Core/Src/main.c **** /* USER CODE BEGIN 4 */
 293:Core/Src/main.c **** 
 294:Core/Src/main.c **** /* USER CODE END 4 */
 295:Core/Src/main.c **** 
 296:Core/Src/main.c **** /**
 297:Core/Src/main.c ****   * @brief  This function is executed in case of error occurrence.
 298:Core/Src/main.c ****   * @retval None
 299:Core/Src/main.c ****   */
 300:Core/Src/main.c **** void Error_Handler(void)
 301:Core/Src/main.c **** {
 158              		.loc 1 301 0
ARM GAS  /tmp/ccb4IaAe.s 			page 9


 159              		.cfi_startproc
 160              		@ args = 0, pretend = 0, frame = 0
 161              		@ frame_needed = 0, uses_anonymous_args = 0
 162 0000 10B5     		push	{r4, lr}
 163              	.LCFI2:
 164              		.cfi_def_cfa_offset 8
 165              		.cfi_offset 4, -8
 166              		.cfi_offset 14, -4
 302:Core/Src/main.c ****   /* USER CODE BEGIN Error_Handler_Debug */
 303:Core/Src/main.c **** #ifdef CONFIG_LED_ERROR
 304:Core/Src/main.c ****   /* Get Start Tick */
 305:Core/Src/main.c ****   int tickstart = HAL_GetTick();
 167              		.loc 1 305 0
 168 0002 FFF7FEFF 		bl	HAL_GetTick
 169              	.LVL6:
 170 0006 0400     		movs	r4, r0
 171              	.LVL7:
 172              	.L5:
 306:Core/Src/main.c ****   while (1)
 307:Core/Src/main.c ****   {
 308:Core/Src/main.c ****     HAL_GPIO_TogglePin(CONFIG_LED_ERROR_PORT, CONFIG_LED_ERROR_PIN);
 173              		.loc 1 308 0
 174 0008 0121     		movs	r1, #1
 175 000a A020     		movs	r0, #160
 176 000c C005     		lsls	r0, r0, #23
 177 000e FFF7FEFF 		bl	HAL_GPIO_TogglePin
 178              	.LVL8:
 309:Core/Src/main.c ****     HAL_Delay(CONFIG_LED_ERROR_BLINK_MS);
 179              		.loc 1 309 0
 180 0012 6420     		movs	r0, #100
 181 0014 FFF7FEFF 		bl	HAL_Delay
 182              	.LVL9:
 310:Core/Src/main.c **** 
 311:Core/Src/main.c ****     if((HAL_GetTick() - tickstart) > CONFIG_LED_ERROR_TIME_MS)
 183              		.loc 1 311 0
 184 0018 FFF7FEFF 		bl	HAL_GetTick
 185              	.LVL10:
 186 001c 001B     		subs	r0, r0, r4
 187 001e 034B     		ldr	r3, .L6
 188 0020 9842     		cmp	r0, r3
 189 0022 F1D9     		bls	.L5
 190              	.LBB7:
 191              	.LBB8:
 192              		.file 2 "Drivers/CMSIS/Include/cmsis_gcc.h"
   1:Drivers/CMSIS/Include/cmsis_gcc.h **** /**************************************************************************//**
   2:Drivers/CMSIS/Include/cmsis_gcc.h ****  * @file     cmsis_gcc.h
   3:Drivers/CMSIS/Include/cmsis_gcc.h ****  * @brief    CMSIS compiler GCC header file
   4:Drivers/CMSIS/Include/cmsis_gcc.h ****  * @version  V5.2.0
   5:Drivers/CMSIS/Include/cmsis_gcc.h ****  * @date     08. May 2019
   6:Drivers/CMSIS/Include/cmsis_gcc.h ****  ******************************************************************************/
   7:Drivers/CMSIS/Include/cmsis_gcc.h **** /*
   8:Drivers/CMSIS/Include/cmsis_gcc.h ****  * Copyright (c) 2009-2019 Arm Limited. All rights reserved.
   9:Drivers/CMSIS/Include/cmsis_gcc.h ****  *
  10:Drivers/CMSIS/Include/cmsis_gcc.h ****  * SPDX-License-Identifier: Apache-2.0
  11:Drivers/CMSIS/Include/cmsis_gcc.h ****  *
  12:Drivers/CMSIS/Include/cmsis_gcc.h ****  * Licensed under the Apache License, Version 2.0 (the License); you may
  13:Drivers/CMSIS/Include/cmsis_gcc.h ****  * not use this file except in compliance with the License.
ARM GAS  /tmp/ccb4IaAe.s 			page 10


  14:Drivers/CMSIS/Include/cmsis_gcc.h ****  * You may obtain a copy of the License at
  15:Drivers/CMSIS/Include/cmsis_gcc.h ****  *
  16:Drivers/CMSIS/Include/cmsis_gcc.h ****  * www.apache.org/licenses/LICENSE-2.0
  17:Drivers/CMSIS/Include/cmsis_gcc.h ****  *
  18:Drivers/CMSIS/Include/cmsis_gcc.h ****  * Unless required by applicable law or agreed to in writing, software
  19:Drivers/CMSIS/Include/cmsis_gcc.h ****  * distributed under the License is distributed on an AS IS BASIS, WITHOUT
  20:Drivers/CMSIS/Include/cmsis_gcc.h ****  * WARRANTIES OR CONDITIONS OF ANY KIND, either express or implied.
  21:Drivers/CMSIS/Include/cmsis_gcc.h ****  * See the License for the specific language governing permissions and
  22:Drivers/CMSIS/Include/cmsis_gcc.h ****  * limitations under the License.
  23:Drivers/CMSIS/Include/cmsis_gcc.h ****  */
  24:Drivers/CMSIS/Include/cmsis_gcc.h **** 
  25:Drivers/CMSIS/Include/cmsis_gcc.h **** #ifndef __CMSIS_GCC_H
  26:Drivers/CMSIS/Include/cmsis_gcc.h **** #define __CMSIS_GCC_H
  27:Drivers/CMSIS/Include/cmsis_gcc.h **** 
  28:Drivers/CMSIS/Include/cmsis_gcc.h **** /* ignore some GCC warnings */
  29:Drivers/CMSIS/Include/cmsis_gcc.h **** #pragma GCC diagnostic push
  30:Drivers/CMSIS/Include/cmsis_gcc.h **** #pragma GCC diagnostic ignored "-Wsign-conversion"
  31:Drivers/CMSIS/Include/cmsis_gcc.h **** #pragma GCC diagnostic ignored "-Wconversion"
  32:Drivers/CMSIS/Include/cmsis_gcc.h **** #pragma GCC diagnostic ignored "-Wunused-parameter"
  33:Drivers/CMSIS/Include/cmsis_gcc.h **** 
  34:Drivers/CMSIS/Include/cmsis_gcc.h **** /* Fallback for __has_builtin */
  35:Drivers/CMSIS/Include/cmsis_gcc.h **** #ifndef __has_builtin
  36:Drivers/CMSIS/Include/cmsis_gcc.h ****   #define __has_builtin(x) (0)
  37:Drivers/CMSIS/Include/cmsis_gcc.h **** #endif
  38:Drivers/CMSIS/Include/cmsis_gcc.h **** 
  39:Drivers/CMSIS/Include/cmsis_gcc.h **** /* CMSIS compiler specific defines */
  40:Drivers/CMSIS/Include/cmsis_gcc.h **** #ifndef   __ASM
  41:Drivers/CMSIS/Include/cmsis_gcc.h ****   #define __ASM                                  __asm
  42:Drivers/CMSIS/Include/cmsis_gcc.h **** #endif
  43:Drivers/CMSIS/Include/cmsis_gcc.h **** #ifndef   __INLINE
  44:Drivers/CMSIS/Include/cmsis_gcc.h ****   #define __INLINE                               inline
  45:Drivers/CMSIS/Include/cmsis_gcc.h **** #endif
  46:Drivers/CMSIS/Include/cmsis_gcc.h **** #ifndef   __STATIC_INLINE
  47:Drivers/CMSIS/Include/cmsis_gcc.h ****   #define __STATIC_INLINE                        static inline
  48:Drivers/CMSIS/Include/cmsis_gcc.h **** #endif
  49:Drivers/CMSIS/Include/cmsis_gcc.h **** #ifndef   __STATIC_FORCEINLINE                 
  50:Drivers/CMSIS/Include/cmsis_gcc.h ****   #define __STATIC_FORCEINLINE                   __attribute__((always_inline)) static inline
  51:Drivers/CMSIS/Include/cmsis_gcc.h **** #endif                                           
  52:Drivers/CMSIS/Include/cmsis_gcc.h **** #ifndef   __NO_RETURN
  53:Drivers/CMSIS/Include/cmsis_gcc.h ****   #define __NO_RETURN                            __attribute__((__noreturn__))
  54:Drivers/CMSIS/Include/cmsis_gcc.h **** #endif
  55:Drivers/CMSIS/Include/cmsis_gcc.h **** #ifndef   __USED
  56:Drivers/CMSIS/Include/cmsis_gcc.h ****   #define __USED                                 __attribute__((used))
  57:Drivers/CMSIS/Include/cmsis_gcc.h **** #endif
  58:Drivers/CMSIS/Include/cmsis_gcc.h **** #ifndef   __WEAK
  59:Drivers/CMSIS/Include/cmsis_gcc.h ****   #define __WEAK                                 __attribute__((weak))
  60:Drivers/CMSIS/Include/cmsis_gcc.h **** #endif
  61:Drivers/CMSIS/Include/cmsis_gcc.h **** #ifndef   __PACKED
  62:Drivers/CMSIS/Include/cmsis_gcc.h ****   #define __PACKED                               __attribute__((packed, aligned(1)))
  63:Drivers/CMSIS/Include/cmsis_gcc.h **** #endif
  64:Drivers/CMSIS/Include/cmsis_gcc.h **** #ifndef   __PACKED_STRUCT
  65:Drivers/CMSIS/Include/cmsis_gcc.h ****   #define __PACKED_STRUCT                        struct __attribute__((packed, aligned(1)))
  66:Drivers/CMSIS/Include/cmsis_gcc.h **** #endif
  67:Drivers/CMSIS/Include/cmsis_gcc.h **** #ifndef   __PACKED_UNION
  68:Drivers/CMSIS/Include/cmsis_gcc.h ****   #define __PACKED_UNION                         union __attribute__((packed, aligned(1)))
  69:Drivers/CMSIS/Include/cmsis_gcc.h **** #endif
  70:Drivers/CMSIS/Include/cmsis_gcc.h **** #ifndef   __UNALIGNED_UINT32        /* deprecated */
ARM GAS  /tmp/ccb4IaAe.s 			page 11


  71:Drivers/CMSIS/Include/cmsis_gcc.h ****   #pragma GCC diagnostic push
  72:Drivers/CMSIS/Include/cmsis_gcc.h ****   #pragma GCC diagnostic ignored "-Wpacked"
  73:Drivers/CMSIS/Include/cmsis_gcc.h ****   #pragma GCC diagnostic ignored "-Wattributes"
  74:Drivers/CMSIS/Include/cmsis_gcc.h ****   struct __attribute__((packed)) T_UINT32 { uint32_t v; };
  75:Drivers/CMSIS/Include/cmsis_gcc.h ****   #pragma GCC diagnostic pop
  76:Drivers/CMSIS/Include/cmsis_gcc.h ****   #define __UNALIGNED_UINT32(x)                  (((struct T_UINT32 *)(x))->v)
  77:Drivers/CMSIS/Include/cmsis_gcc.h **** #endif
  78:Drivers/CMSIS/Include/cmsis_gcc.h **** #ifndef   __UNALIGNED_UINT16_WRITE
  79:Drivers/CMSIS/Include/cmsis_gcc.h ****   #pragma GCC diagnostic push
  80:Drivers/CMSIS/Include/cmsis_gcc.h ****   #pragma GCC diagnostic ignored "-Wpacked"
  81:Drivers/CMSIS/Include/cmsis_gcc.h ****   #pragma GCC diagnostic ignored "-Wattributes"
  82:Drivers/CMSIS/Include/cmsis_gcc.h ****   __PACKED_STRUCT T_UINT16_WRITE { uint16_t v; };
  83:Drivers/CMSIS/Include/cmsis_gcc.h ****   #pragma GCC diagnostic pop
  84:Drivers/CMSIS/Include/cmsis_gcc.h ****   #define __UNALIGNED_UINT16_WRITE(addr, val)    (void)((((struct T_UINT16_WRITE *)(void *)(addr))-
  85:Drivers/CMSIS/Include/cmsis_gcc.h **** #endif
  86:Drivers/CMSIS/Include/cmsis_gcc.h **** #ifndef   __UNALIGNED_UINT16_READ
  87:Drivers/CMSIS/Include/cmsis_gcc.h ****   #pragma GCC diagnostic push
  88:Drivers/CMSIS/Include/cmsis_gcc.h ****   #pragma GCC diagnostic ignored "-Wpacked"
  89:Drivers/CMSIS/Include/cmsis_gcc.h ****   #pragma GCC diagnostic ignored "-Wattributes"
  90:Drivers/CMSIS/Include/cmsis_gcc.h ****   __PACKED_STRUCT T_UINT16_READ { uint16_t v; };
  91:Drivers/CMSIS/Include/cmsis_gcc.h ****   #pragma GCC diagnostic pop
  92:Drivers/CMSIS/Include/cmsis_gcc.h ****   #define __UNALIGNED_UINT16_READ(addr)          (((const struct T_UINT16_READ *)(const void *)(add
  93:Drivers/CMSIS/Include/cmsis_gcc.h **** #endif
  94:Drivers/CMSIS/Include/cmsis_gcc.h **** #ifndef   __UNALIGNED_UINT32_WRITE
  95:Drivers/CMSIS/Include/cmsis_gcc.h ****   #pragma GCC diagnostic push
  96:Drivers/CMSIS/Include/cmsis_gcc.h ****   #pragma GCC diagnostic ignored "-Wpacked"
  97:Drivers/CMSIS/Include/cmsis_gcc.h ****   #pragma GCC diagnostic ignored "-Wattributes"
  98:Drivers/CMSIS/Include/cmsis_gcc.h ****   __PACKED_STRUCT T_UINT32_WRITE { uint32_t v; };
  99:Drivers/CMSIS/Include/cmsis_gcc.h ****   #pragma GCC diagnostic pop
 100:Drivers/CMSIS/Include/cmsis_gcc.h ****   #define __UNALIGNED_UINT32_WRITE(addr, val)    (void)((((struct T_UINT32_WRITE *)(void *)(addr))-
 101:Drivers/CMSIS/Include/cmsis_gcc.h **** #endif
 102:Drivers/CMSIS/Include/cmsis_gcc.h **** #ifndef   __UNALIGNED_UINT32_READ
 103:Drivers/CMSIS/Include/cmsis_gcc.h ****   #pragma GCC diagnostic push
 104:Drivers/CMSIS/Include/cmsis_gcc.h ****   #pragma GCC diagnostic ignored "-Wpacked"
 105:Drivers/CMSIS/Include/cmsis_gcc.h ****   #pragma GCC diagnostic ignored "-Wattributes"
 106:Drivers/CMSIS/Include/cmsis_gcc.h ****   __PACKED_STRUCT T_UINT32_READ { uint32_t v; };
 107:Drivers/CMSIS/Include/cmsis_gcc.h ****   #pragma GCC diagnostic pop
 108:Drivers/CMSIS/Include/cmsis_gcc.h ****   #define __UNALIGNED_UINT32_READ(addr)          (((const struct T_UINT32_READ *)(const void *)(add
 109:Drivers/CMSIS/Include/cmsis_gcc.h **** #endif
 110:Drivers/CMSIS/Include/cmsis_gcc.h **** #ifndef   __ALIGNED
 111:Drivers/CMSIS/Include/cmsis_gcc.h ****   #define __ALIGNED(x)                           __attribute__((aligned(x)))
 112:Drivers/CMSIS/Include/cmsis_gcc.h **** #endif
 113:Drivers/CMSIS/Include/cmsis_gcc.h **** #ifndef   __RESTRICT
 114:Drivers/CMSIS/Include/cmsis_gcc.h ****   #define __RESTRICT                             __restrict
 115:Drivers/CMSIS/Include/cmsis_gcc.h **** #endif
 116:Drivers/CMSIS/Include/cmsis_gcc.h **** #ifndef   __COMPILER_BARRIER
 117:Drivers/CMSIS/Include/cmsis_gcc.h ****   #define __COMPILER_BARRIER()                   __ASM volatile("":::"memory")
 118:Drivers/CMSIS/Include/cmsis_gcc.h **** #endif
 119:Drivers/CMSIS/Include/cmsis_gcc.h **** 
 120:Drivers/CMSIS/Include/cmsis_gcc.h **** /* #########################  Startup and Lowlevel Init  ######################## */
 121:Drivers/CMSIS/Include/cmsis_gcc.h **** 
 122:Drivers/CMSIS/Include/cmsis_gcc.h **** #ifndef __PROGRAM_START
 123:Drivers/CMSIS/Include/cmsis_gcc.h **** 
 124:Drivers/CMSIS/Include/cmsis_gcc.h **** /**
 125:Drivers/CMSIS/Include/cmsis_gcc.h ****   \brief   Initializes data and bss sections
 126:Drivers/CMSIS/Include/cmsis_gcc.h ****   \details This default implementations initialized all data and additional bss
 127:Drivers/CMSIS/Include/cmsis_gcc.h ****            sections relying on .copy.table and .zero.table specified properly
ARM GAS  /tmp/ccb4IaAe.s 			page 12


 128:Drivers/CMSIS/Include/cmsis_gcc.h ****            in the used linker script.
 129:Drivers/CMSIS/Include/cmsis_gcc.h ****   
 130:Drivers/CMSIS/Include/cmsis_gcc.h ****  */
 131:Drivers/CMSIS/Include/cmsis_gcc.h **** __STATIC_FORCEINLINE __NO_RETURN void __cmsis_start(void)
 132:Drivers/CMSIS/Include/cmsis_gcc.h **** {
 133:Drivers/CMSIS/Include/cmsis_gcc.h ****   extern void _start(void) __NO_RETURN;
 134:Drivers/CMSIS/Include/cmsis_gcc.h ****   
 135:Drivers/CMSIS/Include/cmsis_gcc.h ****   typedef struct {
 136:Drivers/CMSIS/Include/cmsis_gcc.h ****     uint32_t const* src;
 137:Drivers/CMSIS/Include/cmsis_gcc.h ****     uint32_t* dest;
 138:Drivers/CMSIS/Include/cmsis_gcc.h ****     uint32_t  wlen;
 139:Drivers/CMSIS/Include/cmsis_gcc.h ****   } __copy_table_t;
 140:Drivers/CMSIS/Include/cmsis_gcc.h ****   
 141:Drivers/CMSIS/Include/cmsis_gcc.h ****   typedef struct {
 142:Drivers/CMSIS/Include/cmsis_gcc.h ****     uint32_t* dest;
 143:Drivers/CMSIS/Include/cmsis_gcc.h ****     uint32_t  wlen;
 144:Drivers/CMSIS/Include/cmsis_gcc.h ****   } __zero_table_t;
 145:Drivers/CMSIS/Include/cmsis_gcc.h ****   
 146:Drivers/CMSIS/Include/cmsis_gcc.h ****   extern const __copy_table_t __copy_table_start__;
 147:Drivers/CMSIS/Include/cmsis_gcc.h ****   extern const __copy_table_t __copy_table_end__;
 148:Drivers/CMSIS/Include/cmsis_gcc.h ****   extern const __zero_table_t __zero_table_start__;
 149:Drivers/CMSIS/Include/cmsis_gcc.h ****   extern const __zero_table_t __zero_table_end__;
 150:Drivers/CMSIS/Include/cmsis_gcc.h **** 
 151:Drivers/CMSIS/Include/cmsis_gcc.h ****   for (__copy_table_t const* pTable = &__copy_table_start__; pTable < &__copy_table_end__; ++pTable
 152:Drivers/CMSIS/Include/cmsis_gcc.h ****     for(uint32_t i=0u; i<pTable->wlen; ++i) {
 153:Drivers/CMSIS/Include/cmsis_gcc.h ****       pTable->dest[i] = pTable->src[i];
 154:Drivers/CMSIS/Include/cmsis_gcc.h ****     }
 155:Drivers/CMSIS/Include/cmsis_gcc.h ****   }
 156:Drivers/CMSIS/Include/cmsis_gcc.h ****  
 157:Drivers/CMSIS/Include/cmsis_gcc.h ****   for (__zero_table_t const* pTable = &__zero_table_start__; pTable < &__zero_table_end__; ++pTable
 158:Drivers/CMSIS/Include/cmsis_gcc.h ****     for(uint32_t i=0u; i<pTable->wlen; ++i) {
 159:Drivers/CMSIS/Include/cmsis_gcc.h ****       pTable->dest[i] = 0u;
 160:Drivers/CMSIS/Include/cmsis_gcc.h ****     }
 161:Drivers/CMSIS/Include/cmsis_gcc.h ****   }
 162:Drivers/CMSIS/Include/cmsis_gcc.h ****  
 163:Drivers/CMSIS/Include/cmsis_gcc.h ****   _start();
 164:Drivers/CMSIS/Include/cmsis_gcc.h **** }
 165:Drivers/CMSIS/Include/cmsis_gcc.h ****   
 166:Drivers/CMSIS/Include/cmsis_gcc.h **** #define __PROGRAM_START           __cmsis_start
 167:Drivers/CMSIS/Include/cmsis_gcc.h **** #endif
 168:Drivers/CMSIS/Include/cmsis_gcc.h **** 
 169:Drivers/CMSIS/Include/cmsis_gcc.h **** #ifndef __INITIAL_SP
 170:Drivers/CMSIS/Include/cmsis_gcc.h **** #define __INITIAL_SP              __StackTop
 171:Drivers/CMSIS/Include/cmsis_gcc.h **** #endif
 172:Drivers/CMSIS/Include/cmsis_gcc.h **** 
 173:Drivers/CMSIS/Include/cmsis_gcc.h **** #ifndef __STACK_LIMIT
 174:Drivers/CMSIS/Include/cmsis_gcc.h **** #define __STACK_LIMIT             __StackLimit
 175:Drivers/CMSIS/Include/cmsis_gcc.h **** #endif
 176:Drivers/CMSIS/Include/cmsis_gcc.h **** 
 177:Drivers/CMSIS/Include/cmsis_gcc.h **** #ifndef __VECTOR_TABLE
 178:Drivers/CMSIS/Include/cmsis_gcc.h **** #define __VECTOR_TABLE            __Vectors
 179:Drivers/CMSIS/Include/cmsis_gcc.h **** #endif
 180:Drivers/CMSIS/Include/cmsis_gcc.h **** 
 181:Drivers/CMSIS/Include/cmsis_gcc.h **** #ifndef __VECTOR_TABLE_ATTRIBUTE
 182:Drivers/CMSIS/Include/cmsis_gcc.h **** #define __VECTOR_TABLE_ATTRIBUTE  __attribute((used, section(".vectors")))
 183:Drivers/CMSIS/Include/cmsis_gcc.h **** #endif
 184:Drivers/CMSIS/Include/cmsis_gcc.h **** 
ARM GAS  /tmp/ccb4IaAe.s 			page 13


 185:Drivers/CMSIS/Include/cmsis_gcc.h **** /* ###########################  Core Function Access  ########################### */
 186:Drivers/CMSIS/Include/cmsis_gcc.h **** /** \ingroup  CMSIS_Core_FunctionInterface
 187:Drivers/CMSIS/Include/cmsis_gcc.h ****     \defgroup CMSIS_Core_RegAccFunctions CMSIS Core Register Access Functions
 188:Drivers/CMSIS/Include/cmsis_gcc.h ****   @{
 189:Drivers/CMSIS/Include/cmsis_gcc.h ****  */
 190:Drivers/CMSIS/Include/cmsis_gcc.h **** 
 191:Drivers/CMSIS/Include/cmsis_gcc.h **** /**
 192:Drivers/CMSIS/Include/cmsis_gcc.h ****   \brief   Enable IRQ Interrupts
 193:Drivers/CMSIS/Include/cmsis_gcc.h ****   \details Enables IRQ interrupts by clearing the I-bit in the CPSR.
 194:Drivers/CMSIS/Include/cmsis_gcc.h ****            Can only be executed in Privileged modes.
 195:Drivers/CMSIS/Include/cmsis_gcc.h ****  */
 196:Drivers/CMSIS/Include/cmsis_gcc.h **** __STATIC_FORCEINLINE void __enable_irq(void)
 197:Drivers/CMSIS/Include/cmsis_gcc.h **** {
 198:Drivers/CMSIS/Include/cmsis_gcc.h ****   __ASM volatile ("cpsie i" : : : "memory");
 199:Drivers/CMSIS/Include/cmsis_gcc.h **** }
 200:Drivers/CMSIS/Include/cmsis_gcc.h **** 
 201:Drivers/CMSIS/Include/cmsis_gcc.h **** 
 202:Drivers/CMSIS/Include/cmsis_gcc.h **** /**
 203:Drivers/CMSIS/Include/cmsis_gcc.h ****   \brief   Disable IRQ Interrupts
 204:Drivers/CMSIS/Include/cmsis_gcc.h ****   \details Disables IRQ interrupts by setting the I-bit in the CPSR.
 205:Drivers/CMSIS/Include/cmsis_gcc.h ****            Can only be executed in Privileged modes.
 206:Drivers/CMSIS/Include/cmsis_gcc.h ****  */
 207:Drivers/CMSIS/Include/cmsis_gcc.h **** __STATIC_FORCEINLINE void __disable_irq(void)
 208:Drivers/CMSIS/Include/cmsis_gcc.h **** {
 209:Drivers/CMSIS/Include/cmsis_gcc.h ****   __ASM volatile ("cpsid i" : : : "memory");
 193              		.loc 2 209 0
 194              		.syntax divided
 195              	@ 209 "Drivers/CMSIS/Include/cmsis_gcc.h" 1
 196 0024 72B6     		cpsid i
 197              	@ 0 "" 2
 198              		.thumb
 199              		.syntax unified
 200              	.LBE8:
 201              	.LBE7:
 312:Core/Src/main.c ****       break;
 313:Core/Src/main.c ****   }
 314:Core/Src/main.c **** #endif
 315:Core/Src/main.c **** 
 316:Core/Src/main.c ****   /* User can add his own implementation to report the HAL error return state */
 317:Core/Src/main.c ****   __disable_irq();
 318:Core/Src/main.c ****   /* reset chip */
 319:Core/Src/main.c ****   HAL_NVIC_SystemReset();
 202              		.loc 1 319 0
 203 0026 FFF7FEFF 		bl	HAL_NVIC_SystemReset
 204              	.LVL11:
 320:Core/Src/main.c ****   /* USER CODE END Error_Handler_Debug */
 321:Core/Src/main.c **** }
 205              		.loc 1 321 0
 206              		@ sp needed
 207              	.LVL12:
 208 002a 10BD     		pop	{r4, pc}
 209              	.L7:
 210              		.align	2
 211              	.L6:
 212 002c B80B0000 		.word	3000
 213              		.cfi_endproc
 214              	.LFE316:
ARM GAS  /tmp/ccb4IaAe.s 			page 14


 216              		.section	.text.MX_I2C1_Init,"ax",%progbits
 217              		.align	2
 218              		.code	16
 219              		.thumb_func
 221              	MX_I2C1_Init:
 222              	.LFB313:
 160:Core/Src/main.c **** 
 223              		.loc 1 160 0
 224              		.cfi_startproc
 225              		@ args = 0, pretend = 0, frame = 0
 226              		@ frame_needed = 0, uses_anonymous_args = 0
 227 0000 10B5     		push	{r4, lr}
 228              	.LCFI3:
 229              		.cfi_def_cfa_offset 8
 230              		.cfi_offset 4, -8
 231              		.cfi_offset 14, -4
 169:Core/Src/main.c ****   hi2c1.Init.Timing = 0x10707DBC;
 232              		.loc 1 169 0
 233 0002 1248     		ldr	r0, .L12
 234 0004 124B     		ldr	r3, .L12+4
 235 0006 0360     		str	r3, [r0]
 170:Core/Src/main.c ****   hi2c1.Init.OwnAddress1 = 0;
 236              		.loc 1 170 0
 237 0008 124B     		ldr	r3, .L12+8
 238 000a 4360     		str	r3, [r0, #4]
 171:Core/Src/main.c ****   hi2c1.Init.AddressingMode = I2C_ADDRESSINGMODE_7BIT;
 239              		.loc 1 171 0
 240 000c 0023     		movs	r3, #0
 241 000e 8360     		str	r3, [r0, #8]
 172:Core/Src/main.c ****   hi2c1.Init.DualAddressMode = I2C_DUALADDRESS_DISABLE;
 242              		.loc 1 172 0
 243 0010 0122     		movs	r2, #1
 244 0012 C260     		str	r2, [r0, #12]
 173:Core/Src/main.c ****   hi2c1.Init.OwnAddress2 = 0;
 245              		.loc 1 173 0
 246 0014 0361     		str	r3, [r0, #16]
 174:Core/Src/main.c ****   hi2c1.Init.OwnAddress2Masks = I2C_OA2_NOMASK;
 247              		.loc 1 174 0
 248 0016 4361     		str	r3, [r0, #20]
 175:Core/Src/main.c ****   hi2c1.Init.GeneralCallMode = I2C_GENERALCALL_DISABLE;
 249              		.loc 1 175 0
 250 0018 8361     		str	r3, [r0, #24]
 176:Core/Src/main.c ****   hi2c1.Init.NoStretchMode = I2C_NOSTRETCH_DISABLE;
 251              		.loc 1 176 0
 252 001a C361     		str	r3, [r0, #28]
 177:Core/Src/main.c ****   if (HAL_I2C_Init(&hi2c1) != HAL_OK)
 253              		.loc 1 177 0
 254 001c 0362     		str	r3, [r0, #32]
 178:Core/Src/main.c ****   {
 255              		.loc 1 178 0
 256 001e FFF7FEFF 		bl	HAL_I2C_Init
 257              	.LVL13:
 258 0022 0028     		cmp	r0, #0
 259 0024 01D0     		beq	.L9
 180:Core/Src/main.c ****   }
 260              		.loc 1 180 0
 261 0026 FFF7FEFF 		bl	Error_Handler
ARM GAS  /tmp/ccb4IaAe.s 			page 15


 262              	.LVL14:
 263              	.L9:
 185:Core/Src/main.c ****   {
 264              		.loc 1 185 0
 265 002a 0021     		movs	r1, #0
 266 002c 0748     		ldr	r0, .L12
 267 002e FFF7FEFF 		bl	HAL_I2CEx_ConfigAnalogFilter
 268              	.LVL15:
 269 0032 0028     		cmp	r0, #0
 270 0034 01D0     		beq	.L10
 187:Core/Src/main.c ****   }
 271              		.loc 1 187 0
 272 0036 FFF7FEFF 		bl	Error_Handler
 273              	.LVL16:
 274              	.L10:
 192:Core/Src/main.c ****   {
 275              		.loc 1 192 0
 276 003a 0021     		movs	r1, #0
 277 003c 0348     		ldr	r0, .L12
 278 003e FFF7FEFF 		bl	HAL_I2CEx_ConfigDigitalFilter
 279              	.LVL17:
 280 0042 0028     		cmp	r0, #0
 281 0044 01D0     		beq	.L8
 194:Core/Src/main.c ****   }
 282              		.loc 1 194 0
 283 0046 FFF7FEFF 		bl	Error_Handler
 284              	.LVL18:
 285              	.L8:
 200:Core/Src/main.c **** 
 286              		.loc 1 200 0
 287              		@ sp needed
 288 004a 10BD     		pop	{r4, pc}
 289              	.L13:
 290              		.align	2
 291              	.L12:
 292 004c 00000000 		.word	hi2c1
 293 0050 00540040 		.word	1073763328
 294 0054 BC7D7010 		.word	275807676
 295              		.cfi_endproc
 296              	.LFE313:
 298              		.section	.text.MX_USART1_UART_Init,"ax",%progbits
 299              		.align	2
 300              		.code	16
 301              		.thumb_func
 303              	MX_USART1_UART_Init:
 304              	.LFB314:
 208:Core/Src/main.c **** 
 305              		.loc 1 208 0
 306              		.cfi_startproc
 307              		@ args = 0, pretend = 0, frame = 0
 308              		@ frame_needed = 0, uses_anonymous_args = 0
 309 0000 10B5     		push	{r4, lr}
 310              	.LCFI4:
 311              		.cfi_def_cfa_offset 8
 312              		.cfi_offset 4, -8
 313              		.cfi_offset 14, -4
 217:Core/Src/main.c ****   huart1.Init.BaudRate = 115200;
ARM GAS  /tmp/ccb4IaAe.s 			page 16


 314              		.loc 1 217 0
 315 0002 1748     		ldr	r0, .L19
 316 0004 174B     		ldr	r3, .L19+4
 317 0006 0360     		str	r3, [r0]
 218:Core/Src/main.c ****   huart1.Init.WordLength = UART_WORDLENGTH_8B;
 318              		.loc 1 218 0
 319 0008 E123     		movs	r3, #225
 320 000a 5B02     		lsls	r3, r3, #9
 321 000c 4360     		str	r3, [r0, #4]
 219:Core/Src/main.c ****   huart1.Init.StopBits = UART_STOPBITS_1;
 322              		.loc 1 219 0
 323 000e 0023     		movs	r3, #0
 324 0010 8360     		str	r3, [r0, #8]
 220:Core/Src/main.c ****   huart1.Init.Parity = UART_PARITY_NONE;
 325              		.loc 1 220 0
 326 0012 C360     		str	r3, [r0, #12]
 221:Core/Src/main.c ****   huart1.Init.Mode = UART_MODE_TX_RX;
 327              		.loc 1 221 0
 328 0014 0361     		str	r3, [r0, #16]
 222:Core/Src/main.c ****   huart1.Init.HwFlowCtl = UART_HWCONTROL_NONE;
 329              		.loc 1 222 0
 330 0016 0C22     		movs	r2, #12
 331 0018 4261     		str	r2, [r0, #20]
 223:Core/Src/main.c ****   huart1.Init.OverSampling = UART_OVERSAMPLING_16;
 332              		.loc 1 223 0
 333 001a 8361     		str	r3, [r0, #24]
 224:Core/Src/main.c ****   huart1.Init.OneBitSampling = UART_ONE_BIT_SAMPLE_DISABLE;
 334              		.loc 1 224 0
 335 001c C361     		str	r3, [r0, #28]
 225:Core/Src/main.c ****   huart1.Init.ClockPrescaler = UART_PRESCALER_DIV1;
 336              		.loc 1 225 0
 337 001e 0362     		str	r3, [r0, #32]
 226:Core/Src/main.c ****   huart1.AdvancedInit.AdvFeatureInit = UART_ADVFEATURE_NO_INIT;
 338              		.loc 1 226 0
 339 0020 4362     		str	r3, [r0, #36]
 227:Core/Src/main.c ****   if (HAL_UART_Init(&huart1) != HAL_OK)
 340              		.loc 1 227 0
 341 0022 8362     		str	r3, [r0, #40]
 228:Core/Src/main.c ****   {
 342              		.loc 1 228 0
 343 0024 FFF7FEFF 		bl	HAL_UART_Init
 344              	.LVL19:
 345 0028 0028     		cmp	r0, #0
 346 002a 01D0     		beq	.L15
 230:Core/Src/main.c ****   }
 347              		.loc 1 230 0
 348 002c FFF7FEFF 		bl	Error_Handler
 349              	.LVL20:
 350              	.L15:
 232:Core/Src/main.c ****   {
 351              		.loc 1 232 0
 352 0030 0021     		movs	r1, #0
 353 0032 0B48     		ldr	r0, .L19
 354 0034 FFF7FEFF 		bl	HAL_UARTEx_SetTxFifoThreshold
 355              	.LVL21:
 356 0038 0028     		cmp	r0, #0
 357 003a 01D0     		beq	.L16
ARM GAS  /tmp/ccb4IaAe.s 			page 17


 234:Core/Src/main.c ****   }
 358              		.loc 1 234 0
 359 003c FFF7FEFF 		bl	Error_Handler
 360              	.LVL22:
 361              	.L16:
 236:Core/Src/main.c ****   {
 362              		.loc 1 236 0
 363 0040 0021     		movs	r1, #0
 364 0042 0748     		ldr	r0, .L19
 365 0044 FFF7FEFF 		bl	HAL_UARTEx_SetRxFifoThreshold
 366              	.LVL23:
 367 0048 0028     		cmp	r0, #0
 368 004a 01D0     		beq	.L17
 238:Core/Src/main.c ****   }
 369              		.loc 1 238 0
 370 004c FFF7FEFF 		bl	Error_Handler
 371              	.LVL24:
 372              	.L17:
 240:Core/Src/main.c ****   {
 373              		.loc 1 240 0
 374 0050 0348     		ldr	r0, .L19
 375 0052 FFF7FEFF 		bl	HAL_UARTEx_DisableFifoMode
 376              	.LVL25:
 377 0056 0028     		cmp	r0, #0
 378 0058 01D0     		beq	.L14
 242:Core/Src/main.c ****   }
 379              		.loc 1 242 0
 380 005a FFF7FEFF 		bl	Error_Handler
 381              	.LVL26:
 382              	.L14:
 248:Core/Src/main.c **** 
 383              		.loc 1 248 0
 384              		@ sp needed
 385 005e 10BD     		pop	{r4, pc}
 386              	.L20:
 387              		.align	2
 388              	.L19:
 389 0060 00000000 		.word	huart1
 390 0064 00380140 		.word	1073821696
 391              		.cfi_endproc
 392              	.LFE314:
 394              		.section	.text.SystemClock_Config,"ax",%progbits
 395              		.align	2
 396              		.global	SystemClock_Config
 397              		.code	16
 398              		.thumb_func
 400              	SystemClock_Config:
 401              	.LFB312:
 114:Core/Src/main.c ****   RCC_OscInitTypeDef RCC_OscInitStruct = {0};
 402              		.loc 1 114 0
 403              		.cfi_startproc
 404              		@ args = 0, pretend = 0, frame = 72
 405              		@ frame_needed = 0, uses_anonymous_args = 0
 406 0000 00B5     		push	{lr}
 407              	.LCFI5:
 408              		.cfi_def_cfa_offset 4
 409              		.cfi_offset 14, -4
ARM GAS  /tmp/ccb4IaAe.s 			page 18


 410 0002 93B0     		sub	sp, sp, #76
 411              	.LCFI6:
 412              		.cfi_def_cfa_offset 80
 115:Core/Src/main.c ****   RCC_ClkInitTypeDef RCC_ClkInitStruct = {0};
 413              		.loc 1 115 0
 414 0004 3422     		movs	r2, #52
 415 0006 0021     		movs	r1, #0
 416 0008 05A8     		add	r0, sp, #20
 417 000a FFF7FEFF 		bl	memset
 418              	.LVL27:
 116:Core/Src/main.c **** 
 419              		.loc 1 116 0
 420 000e 1022     		movs	r2, #16
 421 0010 0021     		movs	r1, #0
 422 0012 01A8     		add	r0, sp, #4
 423 0014 FFF7FEFF 		bl	memset
 424              	.LVL28:
 120:Core/Src/main.c **** 
 425              		.loc 1 120 0
 426 0018 8020     		movs	r0, #128
 427 001a 8000     		lsls	r0, r0, #2
 428 001c FFF7FEFF 		bl	HAL_PWREx_ControlVoltageScaling
 429              	.LVL29:
 125:Core/Src/main.c ****   RCC_OscInitStruct.HSIState = RCC_HSI_ON;
 430              		.loc 1 125 0
 431 0020 0223     		movs	r3, #2
 432 0022 0593     		str	r3, [sp, #20]
 126:Core/Src/main.c ****   RCC_OscInitStruct.HSIDiv = RCC_HSI_DIV1;
 433              		.loc 1 126 0
 434 0024 8022     		movs	r2, #128
 435 0026 5200     		lsls	r2, r2, #1
 436 0028 0892     		str	r2, [sp, #32]
 127:Core/Src/main.c ****   RCC_OscInitStruct.HSICalibrationValue = RCC_HSICALIBRATION_DEFAULT;
 437              		.loc 1 127 0
 438 002a 0022     		movs	r2, #0
 439 002c 0992     		str	r2, [sp, #36]
 128:Core/Src/main.c ****   RCC_OscInitStruct.PLL.PLLState = RCC_PLL_ON;
 440              		.loc 1 128 0
 441 002e 4021     		movs	r1, #64
 442 0030 0A91     		str	r1, [sp, #40]
 129:Core/Src/main.c ****   RCC_OscInitStruct.PLL.PLLSource = RCC_PLLSOURCE_HSI;
 443              		.loc 1 129 0
 444 0032 0C93     		str	r3, [sp, #48]
 130:Core/Src/main.c ****   RCC_OscInitStruct.PLL.PLLM = RCC_PLLM_DIV1;
 445              		.loc 1 130 0
 446 0034 0D93     		str	r3, [sp, #52]
 131:Core/Src/main.c ****   RCC_OscInitStruct.PLL.PLLN = 8;
 447              		.loc 1 131 0
 448 0036 0E92     		str	r2, [sp, #56]
 132:Core/Src/main.c ****   RCC_OscInitStruct.PLL.PLLP = RCC_PLLP_DIV2;
 449              		.loc 1 132 0
 450 0038 0633     		adds	r3, r3, #6
 451 003a 0F93     		str	r3, [sp, #60]
 133:Core/Src/main.c ****   RCC_OscInitStruct.PLL.PLLR = RCC_PLLR_DIV2;
 452              		.loc 1 133 0
 453 003c 8023     		movs	r3, #128
 454 003e 9B02     		lsls	r3, r3, #10
ARM GAS  /tmp/ccb4IaAe.s 			page 19


 455 0040 1093     		str	r3, [sp, #64]
 134:Core/Src/main.c ****   if (HAL_RCC_OscConfig(&RCC_OscInitStruct) != HAL_OK)
 456              		.loc 1 134 0
 457 0042 8023     		movs	r3, #128
 458 0044 9B05     		lsls	r3, r3, #22
 459 0046 1193     		str	r3, [sp, #68]
 135:Core/Src/main.c ****   {
 460              		.loc 1 135 0
 461 0048 05A8     		add	r0, sp, #20
 462 004a FFF7FEFF 		bl	HAL_RCC_OscConfig
 463              	.LVL30:
 464 004e 0028     		cmp	r0, #0
 465 0050 01D0     		beq	.L22
 137:Core/Src/main.c ****   }
 466              		.loc 1 137 0
 467 0052 FFF7FEFF 		bl	Error_Handler
 468              	.LVL31:
 469              	.L22:
 142:Core/Src/main.c ****                               |RCC_CLOCKTYPE_PCLK1;
 470              		.loc 1 142 0
 471 0056 0723     		movs	r3, #7
 472 0058 0193     		str	r3, [sp, #4]
 144:Core/Src/main.c ****   RCC_ClkInitStruct.AHBCLKDivider = RCC_SYSCLK_DIV1;
 473              		.loc 1 144 0
 474 005a 053B     		subs	r3, r3, #5
 475 005c 0293     		str	r3, [sp, #8]
 145:Core/Src/main.c ****   RCC_ClkInitStruct.APB1CLKDivider = RCC_HCLK_DIV1;
 476              		.loc 1 145 0
 477 005e 0023     		movs	r3, #0
 478 0060 0393     		str	r3, [sp, #12]
 146:Core/Src/main.c **** 
 479              		.loc 1 146 0
 480 0062 0493     		str	r3, [sp, #16]
 148:Core/Src/main.c ****   {
 481              		.loc 1 148 0
 482 0064 0221     		movs	r1, #2
 483 0066 01A8     		add	r0, sp, #4
 484 0068 FFF7FEFF 		bl	HAL_RCC_ClockConfig
 485              	.LVL32:
 486 006c 0028     		cmp	r0, #0
 487 006e 01D0     		beq	.L21
 150:Core/Src/main.c ****   }
 488              		.loc 1 150 0
 489 0070 FFF7FEFF 		bl	Error_Handler
 490              	.LVL33:
 491              	.L21:
 152:Core/Src/main.c **** 
 492              		.loc 1 152 0
 493 0074 13B0     		add	sp, sp, #76
 494              		@ sp needed
 495 0076 00BD     		pop	{pc}
 496              		.cfi_endproc
 497              	.LFE312:
 499              		.section	.text.main,"ax",%progbits
 500              		.align	2
 501              		.global	main
 502              		.code	16
ARM GAS  /tmp/ccb4IaAe.s 			page 20


 503              		.thumb_func
 505              	main:
 506              	.LFB311:
  69:Core/Src/main.c ****   /* USER CODE BEGIN 1 */
 507              		.loc 1 69 0
 508              		.cfi_startproc
 509              		@ Volatile: function does not return.
 510              		@ args = 0, pretend = 0, frame = 0
 511              		@ frame_needed = 0, uses_anonymous_args = 0
 512 0000 10B5     		push	{r4, lr}
 513              	.LCFI7:
 514              		.cfi_def_cfa_offset 8
 515              		.cfi_offset 4, -8
 516              		.cfi_offset 14, -4
  77:Core/Src/main.c **** 
 517              		.loc 1 77 0
 518 0002 FFF7FEFF 		bl	HAL_Init
 519              	.LVL34:
  84:Core/Src/main.c **** 
 520              		.loc 1 84 0
 521 0006 FFF7FEFF 		bl	SystemClock_Config
 522              	.LVL35:
  91:Core/Src/main.c ****   MX_I2C1_Init();
 523              		.loc 1 91 0
 524 000a FFF7FEFF 		bl	MX_GPIO_Init
 525              	.LVL36:
  92:Core/Src/main.c ****   MX_USART1_UART_Init();
 526              		.loc 1 92 0
 527 000e FFF7FEFF 		bl	MX_I2C1_Init
 528              	.LVL37:
  93:Core/Src/main.c ****   /* USER CODE BEGIN 2 */
 529              		.loc 1 93 0
 530 0012 FFF7FEFF 		bl	MX_USART1_UART_Init
 531              	.LVL38:
  95:Core/Src/main.c ****   /* USER CODE END 2 */
 532              		.loc 1 95 0
 533 0016 FFF7FEFF 		bl	BOARD_Init
 534              	.LVL39:
 535              	.L25:
 103:Core/Src/main.c ****     /* USER CODE BEGIN 3 */
 536              		.loc 1 103 0 discriminator 1
 537 001a FFF7FEFF 		bl	BOARD_Loop
 538              	.LVL40:
 539 001e FCE7     		b	.L25
 540              		.cfi_endproc
 541              	.LFE311:
 543              		.comm	huart1,148,4
 544              		.comm	hi2c1,84,4
 545              		.text
 546              	.Letext0:
 547              		.file 3 "/home/yuan/gcc-arm-none-eabi-5_4-2016q3/arm-none-eabi/include/machine/_default_types.h"
 548              		.file 4 "/home/yuan/gcc-arm-none-eabi-5_4-2016q3/arm-none-eabi/include/sys/_stdint.h"
 549              		.file 5 "Drivers/CMSIS/Device/ST/STM32G0xx/Include/stm32g070xx.h"
 550              		.file 6 "Drivers/STM32G0xx_HAL_Driver/Inc/stm32g0xx_hal_def.h"
 551              		.file 7 "Drivers/STM32G0xx_HAL_Driver/Inc/stm32g0xx_hal_rcc.h"
 552              		.file 8 "Drivers/STM32G0xx_HAL_Driver/Inc/stm32g0xx_hal_gpio.h"
 553              		.file 9 "Drivers/STM32G0xx_HAL_Driver/Inc/stm32g0xx_hal_dma.h"
ARM GAS  /tmp/ccb4IaAe.s 			page 21


 554              		.file 10 "Drivers/STM32G0xx_HAL_Driver/Inc/stm32g0xx_hal_i2c.h"
 555              		.file 11 "Drivers/STM32G0xx_HAL_Driver/Inc/stm32g0xx_hal_uart.h"
 556              		.file 12 "Drivers/STM32G0xx_HAL_Driver/Inc/stm32g0xx_ll_dma.h"
 557              		.file 13 "Drivers/STM32G0xx_HAL_Driver/Inc/stm32g0xx_hal.h"
 558              		.file 14 "Drivers/STM32G0xx_HAL_Driver/Inc/stm32g0xx_hal_cortex.h"
 559              		.file 15 "Drivers/STM32G0xx_HAL_Driver/Inc/stm32g0xx_hal_i2c_ex.h"
 560              		.file 16 "Drivers/STM32G0xx_HAL_Driver/Inc/stm32g0xx_hal_uart_ex.h"
 561              		.file 17 "Drivers/STM32G0xx_HAL_Driver/Inc/stm32g0xx_hal_pwr_ex.h"
 562              		.file 18 "Core/Inc/board.h"
ARM GAS  /tmp/ccb4IaAe.s 			page 22

