ARM GAS  /tmp/ccETUiog.s 			page 1


   1              		.syntax unified
   2              		.cpu cortex-m0plus
   3              		.fpu softvfp
   4              		.eabi_attribute 20, 1
   5              		.eabi_attribute 21, 1
   6              		.eabi_attribute 23, 3
   7              		.eabi_attribute 24, 1
   8              		.eabi_attribute 25, 1
   9              		.eabi_attribute 26, 1
  10              		.eabi_attribute 30, 1
  11              		.eabi_attribute 34, 0
  12              		.eabi_attribute 18, 4
  13              		.thumb
  14              		.syntax unified
  15              		.file	"stm32g0xx_hal_rcc.c"
  16              		.text
  17              	.Ltext0:
  18              		.cfi_sections	.debug_frame
  19              		.section	.text.HAL_RCC_DeInit,"ax",%progbits
  20              		.align	2
  21              		.global	HAL_RCC_DeInit
  22              		.code	16
  23              		.thumb_func
  25              	HAL_RCC_DeInit:
  26              	.LFB310:
  27              		.file 1 "Drivers/STM32G0xx_HAL_Driver/Src/stm32g0xx_hal_rcc.c"
   1:Drivers/STM32G0xx_HAL_Driver/Src/stm32g0xx_hal_rcc.c **** /**
   2:Drivers/STM32G0xx_HAL_Driver/Src/stm32g0xx_hal_rcc.c ****   ******************************************************************************
   3:Drivers/STM32G0xx_HAL_Driver/Src/stm32g0xx_hal_rcc.c ****   * @file    stm32g0xx_hal_rcc.c
   4:Drivers/STM32G0xx_HAL_Driver/Src/stm32g0xx_hal_rcc.c ****   * @author  MCD Application Team
   5:Drivers/STM32G0xx_HAL_Driver/Src/stm32g0xx_hal_rcc.c ****   * @brief   RCC HAL module driver.
   6:Drivers/STM32G0xx_HAL_Driver/Src/stm32g0xx_hal_rcc.c ****   *          This file provides firmware functions to manage the following
   7:Drivers/STM32G0xx_HAL_Driver/Src/stm32g0xx_hal_rcc.c ****   *          functionalities of the Reset and Clock Control (RCC) peripheral:
   8:Drivers/STM32G0xx_HAL_Driver/Src/stm32g0xx_hal_rcc.c ****   *           + Initialization and de-initialization functions
   9:Drivers/STM32G0xx_HAL_Driver/Src/stm32g0xx_hal_rcc.c ****   *           + Peripheral Control functions
  10:Drivers/STM32G0xx_HAL_Driver/Src/stm32g0xx_hal_rcc.c ****   *
  11:Drivers/STM32G0xx_HAL_Driver/Src/stm32g0xx_hal_rcc.c ****   @verbatim
  12:Drivers/STM32G0xx_HAL_Driver/Src/stm32g0xx_hal_rcc.c ****   ==============================================================================
  13:Drivers/STM32G0xx_HAL_Driver/Src/stm32g0xx_hal_rcc.c ****                       ##### RCC specific features #####
  14:Drivers/STM32G0xx_HAL_Driver/Src/stm32g0xx_hal_rcc.c ****   ==============================================================================
  15:Drivers/STM32G0xx_HAL_Driver/Src/stm32g0xx_hal_rcc.c ****     [..]
  16:Drivers/STM32G0xx_HAL_Driver/Src/stm32g0xx_hal_rcc.c ****       After reset the device is running from High Speed Internal oscillator
  17:Drivers/STM32G0xx_HAL_Driver/Src/stm32g0xx_hal_rcc.c ****       (from 8 MHz to reach 16MHz) with Flash 0 wait state. Flash prefetch buffer,
  18:Drivers/STM32G0xx_HAL_Driver/Src/stm32g0xx_hal_rcc.c ****       D-Cache and I-Cache are disabled, and all peripherals are off except internal
  19:Drivers/STM32G0xx_HAL_Driver/Src/stm32g0xx_hal_rcc.c ****       SRAM, Flash and JTAG.
  20:Drivers/STM32G0xx_HAL_Driver/Src/stm32g0xx_hal_rcc.c **** 
  21:Drivers/STM32G0xx_HAL_Driver/Src/stm32g0xx_hal_rcc.c ****       (+) There is no prescaler on High speed (AHB) and Low speed (APB) buses:
  22:Drivers/STM32G0xx_HAL_Driver/Src/stm32g0xx_hal_rcc.c ****           all peripherals mapped on these buses are running at HSI speed.
  23:Drivers/STM32G0xx_HAL_Driver/Src/stm32g0xx_hal_rcc.c ****       (+) The clock for all peripherals is switched off, except the SRAM and FLASH.
  24:Drivers/STM32G0xx_HAL_Driver/Src/stm32g0xx_hal_rcc.c ****       (+) All GPIOs are in analog mode, except the JTAG pins which
  25:Drivers/STM32G0xx_HAL_Driver/Src/stm32g0xx_hal_rcc.c ****           are assigned to be used for debug purpose.
  26:Drivers/STM32G0xx_HAL_Driver/Src/stm32g0xx_hal_rcc.c **** 
  27:Drivers/STM32G0xx_HAL_Driver/Src/stm32g0xx_hal_rcc.c ****     [..]
  28:Drivers/STM32G0xx_HAL_Driver/Src/stm32g0xx_hal_rcc.c ****       Once the device started from reset, the user application has to:
  29:Drivers/STM32G0xx_HAL_Driver/Src/stm32g0xx_hal_rcc.c ****       (+) Configure the clock source to be used to drive the System clock
  30:Drivers/STM32G0xx_HAL_Driver/Src/stm32g0xx_hal_rcc.c ****           (if the application needs higher frequency/performance)
  31:Drivers/STM32G0xx_HAL_Driver/Src/stm32g0xx_hal_rcc.c ****       (+) Configure the System clock frequency and Flash settings
ARM GAS  /tmp/ccETUiog.s 			page 2


  32:Drivers/STM32G0xx_HAL_Driver/Src/stm32g0xx_hal_rcc.c ****       (+) Configure the AHB and APB buses prescalers
  33:Drivers/STM32G0xx_HAL_Driver/Src/stm32g0xx_hal_rcc.c ****       (+) Enable the clock for the peripheral(s) to be used
  34:Drivers/STM32G0xx_HAL_Driver/Src/stm32g0xx_hal_rcc.c ****       (+) Configure the clock source(s) for peripherals which clocks are not
  35:Drivers/STM32G0xx_HAL_Driver/Src/stm32g0xx_hal_rcc.c ****           derived from the System clock (RTC, ADC, RNG, HSTIM)
  36:Drivers/STM32G0xx_HAL_Driver/Src/stm32g0xx_hal_rcc.c **** 
  37:Drivers/STM32G0xx_HAL_Driver/Src/stm32g0xx_hal_rcc.c ****   @endverbatim
  38:Drivers/STM32G0xx_HAL_Driver/Src/stm32g0xx_hal_rcc.c ****   ******************************************************************************
  39:Drivers/STM32G0xx_HAL_Driver/Src/stm32g0xx_hal_rcc.c ****   * @attention
  40:Drivers/STM32G0xx_HAL_Driver/Src/stm32g0xx_hal_rcc.c ****   *
  41:Drivers/STM32G0xx_HAL_Driver/Src/stm32g0xx_hal_rcc.c ****   * Copyright (c) 2018 STMicroelectronics.
  42:Drivers/STM32G0xx_HAL_Driver/Src/stm32g0xx_hal_rcc.c ****   * All rights reserved.
  43:Drivers/STM32G0xx_HAL_Driver/Src/stm32g0xx_hal_rcc.c ****   *
  44:Drivers/STM32G0xx_HAL_Driver/Src/stm32g0xx_hal_rcc.c ****   * This software is licensed under terms that can be found in the LICENSE file in
  45:Drivers/STM32G0xx_HAL_Driver/Src/stm32g0xx_hal_rcc.c ****   * the root directory of this software component.
  46:Drivers/STM32G0xx_HAL_Driver/Src/stm32g0xx_hal_rcc.c ****   * If no LICENSE file comes with this software, it is provided AS-IS.
  47:Drivers/STM32G0xx_HAL_Driver/Src/stm32g0xx_hal_rcc.c ****   ******************************************************************************
  48:Drivers/STM32G0xx_HAL_Driver/Src/stm32g0xx_hal_rcc.c ****   */
  49:Drivers/STM32G0xx_HAL_Driver/Src/stm32g0xx_hal_rcc.c **** 
  50:Drivers/STM32G0xx_HAL_Driver/Src/stm32g0xx_hal_rcc.c **** /* Includes ------------------------------------------------------------------*/
  51:Drivers/STM32G0xx_HAL_Driver/Src/stm32g0xx_hal_rcc.c **** #include "stm32g0xx_hal.h"
  52:Drivers/STM32G0xx_HAL_Driver/Src/stm32g0xx_hal_rcc.c **** 
  53:Drivers/STM32G0xx_HAL_Driver/Src/stm32g0xx_hal_rcc.c **** /** @addtogroup STM32G0xx_HAL_Driver
  54:Drivers/STM32G0xx_HAL_Driver/Src/stm32g0xx_hal_rcc.c ****   * @{
  55:Drivers/STM32G0xx_HAL_Driver/Src/stm32g0xx_hal_rcc.c ****   */
  56:Drivers/STM32G0xx_HAL_Driver/Src/stm32g0xx_hal_rcc.c **** 
  57:Drivers/STM32G0xx_HAL_Driver/Src/stm32g0xx_hal_rcc.c **** /** @defgroup RCC RCC
  58:Drivers/STM32G0xx_HAL_Driver/Src/stm32g0xx_hal_rcc.c ****   * @brief RCC HAL module driver
  59:Drivers/STM32G0xx_HAL_Driver/Src/stm32g0xx_hal_rcc.c ****   * @{
  60:Drivers/STM32G0xx_HAL_Driver/Src/stm32g0xx_hal_rcc.c ****   */
  61:Drivers/STM32G0xx_HAL_Driver/Src/stm32g0xx_hal_rcc.c **** 
  62:Drivers/STM32G0xx_HAL_Driver/Src/stm32g0xx_hal_rcc.c **** #ifdef HAL_RCC_MODULE_ENABLED
  63:Drivers/STM32G0xx_HAL_Driver/Src/stm32g0xx_hal_rcc.c **** 
  64:Drivers/STM32G0xx_HAL_Driver/Src/stm32g0xx_hal_rcc.c **** /* Private typedef -----------------------------------------------------------*/
  65:Drivers/STM32G0xx_HAL_Driver/Src/stm32g0xx_hal_rcc.c **** /* Private define ------------------------------------------------------------*/
  66:Drivers/STM32G0xx_HAL_Driver/Src/stm32g0xx_hal_rcc.c **** /** @defgroup RCC_Private_Constants RCC Private Constants
  67:Drivers/STM32G0xx_HAL_Driver/Src/stm32g0xx_hal_rcc.c ****   * @{
  68:Drivers/STM32G0xx_HAL_Driver/Src/stm32g0xx_hal_rcc.c ****   */
  69:Drivers/STM32G0xx_HAL_Driver/Src/stm32g0xx_hal_rcc.c **** #define HSE_TIMEOUT_VALUE          HSE_STARTUP_TIMEOUT
  70:Drivers/STM32G0xx_HAL_Driver/Src/stm32g0xx_hal_rcc.c **** #define HSI_TIMEOUT_VALUE          (2U)    /* 2 ms (minimum Tick + 1) */
  71:Drivers/STM32G0xx_HAL_Driver/Src/stm32g0xx_hal_rcc.c **** #define LSI_TIMEOUT_VALUE          (2U)    /* 2 ms (minimum Tick + 1) */
  72:Drivers/STM32G0xx_HAL_Driver/Src/stm32g0xx_hal_rcc.c **** #define PLL_TIMEOUT_VALUE          (2U)    /* 2 ms (minimum Tick + 1) */
  73:Drivers/STM32G0xx_HAL_Driver/Src/stm32g0xx_hal_rcc.c **** 
  74:Drivers/STM32G0xx_HAL_Driver/Src/stm32g0xx_hal_rcc.c **** #if defined(RCC_HSI48_SUPPORT)
  75:Drivers/STM32G0xx_HAL_Driver/Src/stm32g0xx_hal_rcc.c **** #define HSI48_TIMEOUT_VALUE        (2U)    /* 2 ms (minimum Tick + 1) */
  76:Drivers/STM32G0xx_HAL_Driver/Src/stm32g0xx_hal_rcc.c **** #endif /* RCC_HSI48_SUPPORT */
  77:Drivers/STM32G0xx_HAL_Driver/Src/stm32g0xx_hal_rcc.c **** #define CLOCKSWITCH_TIMEOUT_VALUE  (5000U) /* 5 s    */
  78:Drivers/STM32G0xx_HAL_Driver/Src/stm32g0xx_hal_rcc.c **** 
  79:Drivers/STM32G0xx_HAL_Driver/Src/stm32g0xx_hal_rcc.c **** #define PLLSOURCE_NONE             (0U)
  80:Drivers/STM32G0xx_HAL_Driver/Src/stm32g0xx_hal_rcc.c **** /**
  81:Drivers/STM32G0xx_HAL_Driver/Src/stm32g0xx_hal_rcc.c ****   * @}
  82:Drivers/STM32G0xx_HAL_Driver/Src/stm32g0xx_hal_rcc.c ****   */
  83:Drivers/STM32G0xx_HAL_Driver/Src/stm32g0xx_hal_rcc.c **** 
  84:Drivers/STM32G0xx_HAL_Driver/Src/stm32g0xx_hal_rcc.c **** /* Private macro -------------------------------------------------------------*/
  85:Drivers/STM32G0xx_HAL_Driver/Src/stm32g0xx_hal_rcc.c **** /** @defgroup RCC_Private_Macros RCC Private Macros
  86:Drivers/STM32G0xx_HAL_Driver/Src/stm32g0xx_hal_rcc.c ****   * @{
  87:Drivers/STM32G0xx_HAL_Driver/Src/stm32g0xx_hal_rcc.c ****   */
  88:Drivers/STM32G0xx_HAL_Driver/Src/stm32g0xx_hal_rcc.c **** #define MCO1_CLK_ENABLE()     __HAL_RCC_GPIOA_CLK_ENABLE()
ARM GAS  /tmp/ccETUiog.s 			page 3


  89:Drivers/STM32G0xx_HAL_Driver/Src/stm32g0xx_hal_rcc.c **** #define MCO1_GPIO_PORT        GPIOA
  90:Drivers/STM32G0xx_HAL_Driver/Src/stm32g0xx_hal_rcc.c **** #define MCO1_PIN              GPIO_PIN_8
  91:Drivers/STM32G0xx_HAL_Driver/Src/stm32g0xx_hal_rcc.c **** 
  92:Drivers/STM32G0xx_HAL_Driver/Src/stm32g0xx_hal_rcc.c **** #if defined(RCC_MCO2_SUPPORT)
  93:Drivers/STM32G0xx_HAL_Driver/Src/stm32g0xx_hal_rcc.c **** #define MCO2_CLK_ENABLE()    __HAL_RCC_GPIOA_CLK_ENABLE()
  94:Drivers/STM32G0xx_HAL_Driver/Src/stm32g0xx_hal_rcc.c **** #define MCO2_GPIO_PORT        GPIOA
  95:Drivers/STM32G0xx_HAL_Driver/Src/stm32g0xx_hal_rcc.c **** #define MCO2_PIN              GPIO_PIN_10
  96:Drivers/STM32G0xx_HAL_Driver/Src/stm32g0xx_hal_rcc.c **** #endif /* RCC_MCO2_SUPPORT */
  97:Drivers/STM32G0xx_HAL_Driver/Src/stm32g0xx_hal_rcc.c **** 
  98:Drivers/STM32G0xx_HAL_Driver/Src/stm32g0xx_hal_rcc.c **** #define RCC_PLL_OSCSOURCE_CONFIG(__HAL_RCC_PLLSOURCE__) \
  99:Drivers/STM32G0xx_HAL_Driver/Src/stm32g0xx_hal_rcc.c ****   (MODIFY_REG(RCC->PLLCFGR, RCC_PLLCFGR_PLLSRC, (uint32_t)(__HAL_RCC_PLLSOURCE__)))
 100:Drivers/STM32G0xx_HAL_Driver/Src/stm32g0xx_hal_rcc.c **** /**
 101:Drivers/STM32G0xx_HAL_Driver/Src/stm32g0xx_hal_rcc.c ****   * @}
 102:Drivers/STM32G0xx_HAL_Driver/Src/stm32g0xx_hal_rcc.c ****   */
 103:Drivers/STM32G0xx_HAL_Driver/Src/stm32g0xx_hal_rcc.c **** 
 104:Drivers/STM32G0xx_HAL_Driver/Src/stm32g0xx_hal_rcc.c **** /* Private variables ---------------------------------------------------------*/
 105:Drivers/STM32G0xx_HAL_Driver/Src/stm32g0xx_hal_rcc.c **** /** @defgroup RCC_Private_Variables RCC Private Variables
 106:Drivers/STM32G0xx_HAL_Driver/Src/stm32g0xx_hal_rcc.c ****   * @{
 107:Drivers/STM32G0xx_HAL_Driver/Src/stm32g0xx_hal_rcc.c ****   */
 108:Drivers/STM32G0xx_HAL_Driver/Src/stm32g0xx_hal_rcc.c **** 
 109:Drivers/STM32G0xx_HAL_Driver/Src/stm32g0xx_hal_rcc.c **** /**
 110:Drivers/STM32G0xx_HAL_Driver/Src/stm32g0xx_hal_rcc.c ****   * @}
 111:Drivers/STM32G0xx_HAL_Driver/Src/stm32g0xx_hal_rcc.c ****   */
 112:Drivers/STM32G0xx_HAL_Driver/Src/stm32g0xx_hal_rcc.c **** 
 113:Drivers/STM32G0xx_HAL_Driver/Src/stm32g0xx_hal_rcc.c **** /* Private function prototypes -----------------------------------------------*/
 114:Drivers/STM32G0xx_HAL_Driver/Src/stm32g0xx_hal_rcc.c **** /* Exported functions --------------------------------------------------------*/
 115:Drivers/STM32G0xx_HAL_Driver/Src/stm32g0xx_hal_rcc.c **** 
 116:Drivers/STM32G0xx_HAL_Driver/Src/stm32g0xx_hal_rcc.c **** /** @defgroup RCC_Exported_Functions RCC Exported Functions
 117:Drivers/STM32G0xx_HAL_Driver/Src/stm32g0xx_hal_rcc.c ****   * @{
 118:Drivers/STM32G0xx_HAL_Driver/Src/stm32g0xx_hal_rcc.c ****   */
 119:Drivers/STM32G0xx_HAL_Driver/Src/stm32g0xx_hal_rcc.c **** 
 120:Drivers/STM32G0xx_HAL_Driver/Src/stm32g0xx_hal_rcc.c **** /** @defgroup RCC_Exported_Functions_Group1 Initialization and de-initialization functions
 121:Drivers/STM32G0xx_HAL_Driver/Src/stm32g0xx_hal_rcc.c ****   *  @brief    Initialization and Configuration functions
 122:Drivers/STM32G0xx_HAL_Driver/Src/stm32g0xx_hal_rcc.c ****   *
 123:Drivers/STM32G0xx_HAL_Driver/Src/stm32g0xx_hal_rcc.c ****   @verbatim
 124:Drivers/STM32G0xx_HAL_Driver/Src/stm32g0xx_hal_rcc.c ****  ===============================================================================
 125:Drivers/STM32G0xx_HAL_Driver/Src/stm32g0xx_hal_rcc.c ****            ##### Initialization and de-initialization functions #####
 126:Drivers/STM32G0xx_HAL_Driver/Src/stm32g0xx_hal_rcc.c ****  ===============================================================================
 127:Drivers/STM32G0xx_HAL_Driver/Src/stm32g0xx_hal_rcc.c ****     [..]
 128:Drivers/STM32G0xx_HAL_Driver/Src/stm32g0xx_hal_rcc.c ****       This section provides functions allowing to configure the internal and external oscillators
 129:Drivers/STM32G0xx_HAL_Driver/Src/stm32g0xx_hal_rcc.c ****       (HSE, HSI, LSE, LSI, PLL, CSS and MCO) and the System buses clocks (SYSCLK, AHB, APB)
 130:Drivers/STM32G0xx_HAL_Driver/Src/stm32g0xx_hal_rcc.c **** 
 131:Drivers/STM32G0xx_HAL_Driver/Src/stm32g0xx_hal_rcc.c ****     [..] Internal/external clock and PLL configuration
 132:Drivers/STM32G0xx_HAL_Driver/Src/stm32g0xx_hal_rcc.c ****          (+) HSI (high-speed internal): 16 MHz factory-trimmed RC used directly or through
 133:Drivers/STM32G0xx_HAL_Driver/Src/stm32g0xx_hal_rcc.c ****              the PLL as System clock source.
 134:Drivers/STM32G0xx_HAL_Driver/Src/stm32g0xx_hal_rcc.c **** 
 135:Drivers/STM32G0xx_HAL_Driver/Src/stm32g0xx_hal_rcc.c ****          (+) LSI (low-speed internal): 32 KHz low consumption RC used as IWDG and/or RTC
 136:Drivers/STM32G0xx_HAL_Driver/Src/stm32g0xx_hal_rcc.c ****              clock source.
 137:Drivers/STM32G0xx_HAL_Driver/Src/stm32g0xx_hal_rcc.c **** 
 138:Drivers/STM32G0xx_HAL_Driver/Src/stm32g0xx_hal_rcc.c ****          (+) HSE (high-speed external): 4 to 48 MHz crystal oscillator used directly or
 139:Drivers/STM32G0xx_HAL_Driver/Src/stm32g0xx_hal_rcc.c ****              through the PLL as System clock source. Can be used also optionally as RTC clock sourc
 140:Drivers/STM32G0xx_HAL_Driver/Src/stm32g0xx_hal_rcc.c **** 
 141:Drivers/STM32G0xx_HAL_Driver/Src/stm32g0xx_hal_rcc.c ****          (+) LSE (low-speed external): 32.768 KHz oscillator used optionally as RTC clock source.
 142:Drivers/STM32G0xx_HAL_Driver/Src/stm32g0xx_hal_rcc.c **** 
 143:Drivers/STM32G0xx_HAL_Driver/Src/stm32g0xx_hal_rcc.c ****          (+) PLL (clocked by HSI, HSE) providing up to three independent output clocks:
 144:Drivers/STM32G0xx_HAL_Driver/Src/stm32g0xx_hal_rcc.c ****            (++) The first output (R) is used to generate the high speed system clock (up to 64MHz).
 145:Drivers/STM32G0xx_HAL_Driver/Src/stm32g0xx_hal_rcc.c ****            (++) The second output(Q) is used to generate the clock for the random analog generator 
ARM GAS  /tmp/ccETUiog.s 			page 4


 146:Drivers/STM32G0xx_HAL_Driver/Src/stm32g0xx_hal_rcc.c ****            (++) The Third output (P) is used to generate the clock for the Analog to Digital Conver
 147:Drivers/STM32G0xx_HAL_Driver/Src/stm32g0xx_hal_rcc.c **** 
 148:Drivers/STM32G0xx_HAL_Driver/Src/stm32g0xx_hal_rcc.c ****          (+) CSS (Clock security system): once enabled, if a HSE or LSE clock failure occurs
 149:Drivers/STM32G0xx_HAL_Driver/Src/stm32g0xx_hal_rcc.c ****             (HSE used directly or through PLL as System clock source), the System clock
 150:Drivers/STM32G0xx_HAL_Driver/Src/stm32g0xx_hal_rcc.c ****              is automatically switched respectively to HSI or LSI and an interrupt is generated
 151:Drivers/STM32G0xx_HAL_Driver/Src/stm32g0xx_hal_rcc.c ****              if enabled. The interrupt is linked to the Cortex-M0+ NMI (Non-Maskable Interrupt)
 152:Drivers/STM32G0xx_HAL_Driver/Src/stm32g0xx_hal_rcc.c ****              exception vector.
 153:Drivers/STM32G0xx_HAL_Driver/Src/stm32g0xx_hal_rcc.c **** 
 154:Drivers/STM32G0xx_HAL_Driver/Src/stm32g0xx_hal_rcc.c ****          (+) MCOx (microcontroller clock output):
 155:Drivers/STM32G0xx_HAL_Driver/Src/stm32g0xx_hal_rcc.c ****              (++) MCO1 used to output LSI, HSI48(*), HSI, LSE, HSE or main PLL clock (through a con
 156:Drivers/STM32G0xx_HAL_Driver/Src/stm32g0xx_hal_rcc.c ****              (++) MCO2(*) used to output LSI, HSI48(*), HSI, LSE, HSE, main PLLR clock, PLLQ clock,
 157:Drivers/STM32G0xx_HAL_Driver/Src/stm32g0xx_hal_rcc.c ****                  (*) available on certain devices only
 158:Drivers/STM32G0xx_HAL_Driver/Src/stm32g0xx_hal_rcc.c **** 
 159:Drivers/STM32G0xx_HAL_Driver/Src/stm32g0xx_hal_rcc.c ****     [..] System, AHB and APB buses clocks configuration
 160:Drivers/STM32G0xx_HAL_Driver/Src/stm32g0xx_hal_rcc.c ****          (+) Several clock sources can be used to drive the System clock (SYSCLK): HSI,
 161:Drivers/STM32G0xx_HAL_Driver/Src/stm32g0xx_hal_rcc.c ****              HSE, LSI, LSE and main PLL.
 162:Drivers/STM32G0xx_HAL_Driver/Src/stm32g0xx_hal_rcc.c ****              The AHB clock (HCLK) is derived from System clock through configurable
 163:Drivers/STM32G0xx_HAL_Driver/Src/stm32g0xx_hal_rcc.c ****              prescaler and used to clock the CPU, memory and peripherals mapped
 164:Drivers/STM32G0xx_HAL_Driver/Src/stm32g0xx_hal_rcc.c ****              on AHB bus (DMA, GPIO...).and APB (PCLK1) clock is derived
 165:Drivers/STM32G0xx_HAL_Driver/Src/stm32g0xx_hal_rcc.c ****              from AHB clock through configurable prescalers and used to clock
 166:Drivers/STM32G0xx_HAL_Driver/Src/stm32g0xx_hal_rcc.c ****              the peripherals mapped on these buses. You can use
 167:Drivers/STM32G0xx_HAL_Driver/Src/stm32g0xx_hal_rcc.c ****              "HAL_RCC_GetSysClockFreq()" function to retrieve the frequencies of these clocks.
 168:Drivers/STM32G0xx_HAL_Driver/Src/stm32g0xx_hal_rcc.c **** 
 169:Drivers/STM32G0xx_HAL_Driver/Src/stm32g0xx_hal_rcc.c ****          -@- All the peripheral clocks are derived from the System clock (SYSCLK) except:
 170:Drivers/STM32G0xx_HAL_Driver/Src/stm32g0xx_hal_rcc.c **** 
 171:Drivers/STM32G0xx_HAL_Driver/Src/stm32g0xx_hal_rcc.c ****             (+@) RTC: the RTC clock can be derived either from the LSI, LSE or HSE clock
 172:Drivers/STM32G0xx_HAL_Driver/Src/stm32g0xx_hal_rcc.c ****                 divided by 2 to 31.
 173:Drivers/STM32G0xx_HAL_Driver/Src/stm32g0xx_hal_rcc.c ****                 You have to use __HAL_RCC_RTC_ENABLE() and HAL_RCCEx_PeriphCLKConfig() function
 174:Drivers/STM32G0xx_HAL_Driver/Src/stm32g0xx_hal_rcc.c ****                  to configure this clock.
 175:Drivers/STM32G0xx_HAL_Driver/Src/stm32g0xx_hal_rcc.c **** 
 176:Drivers/STM32G0xx_HAL_Driver/Src/stm32g0xx_hal_rcc.c ****             (+@) RNG(*) requires a frequency equal or lower than 48 MHz.
 177:Drivers/STM32G0xx_HAL_Driver/Src/stm32g0xx_hal_rcc.c ****                  This clock is derived from the main PLL or HSI or System clock.
 178:Drivers/STM32G0xx_HAL_Driver/Src/stm32g0xx_hal_rcc.c ****                  (*) available on certain devices only
 179:Drivers/STM32G0xx_HAL_Driver/Src/stm32g0xx_hal_rcc.c **** 
 180:Drivers/STM32G0xx_HAL_Driver/Src/stm32g0xx_hal_rcc.c ****             (+@) IWDG clock which is always the LSI clock.
 181:Drivers/STM32G0xx_HAL_Driver/Src/stm32g0xx_hal_rcc.c **** 
 182:Drivers/STM32G0xx_HAL_Driver/Src/stm32g0xx_hal_rcc.c **** 
 183:Drivers/STM32G0xx_HAL_Driver/Src/stm32g0xx_hal_rcc.c ****          (+) The maximum frequency of the SYSCLK, HCLK, PCLK is 64 MHz.
 184:Drivers/STM32G0xx_HAL_Driver/Src/stm32g0xx_hal_rcc.c ****              Depending on the device voltage range, the maximum frequency should be
 185:Drivers/STM32G0xx_HAL_Driver/Src/stm32g0xx_hal_rcc.c ****              adapted accordingly.
 186:Drivers/STM32G0xx_HAL_Driver/Src/stm32g0xx_hal_rcc.c **** 
 187:Drivers/STM32G0xx_HAL_Driver/Src/stm32g0xx_hal_rcc.c ****   @endverbatim
 188:Drivers/STM32G0xx_HAL_Driver/Src/stm32g0xx_hal_rcc.c **** 
 189:Drivers/STM32G0xx_HAL_Driver/Src/stm32g0xx_hal_rcc.c ****      (++)  Table 1. HCLK clock frequency.
 190:Drivers/STM32G0xx_HAL_Driver/Src/stm32g0xx_hal_rcc.c ****      (++)  +-------------------------------------------------------+
 191:Drivers/STM32G0xx_HAL_Driver/Src/stm32g0xx_hal_rcc.c ****      (++)  | Latency         |    HCLK clock frequency (MHz)       |
 192:Drivers/STM32G0xx_HAL_Driver/Src/stm32g0xx_hal_rcc.c ****      (++)  |                 |-------------------------------------|
 193:Drivers/STM32G0xx_HAL_Driver/Src/stm32g0xx_hal_rcc.c ****      (++)  |                 | voltage range 1  | voltage range 2  |
 194:Drivers/STM32G0xx_HAL_Driver/Src/stm32g0xx_hal_rcc.c ****      (++)  |                 |      1.2 V       |     1.0 V        |
 195:Drivers/STM32G0xx_HAL_Driver/Src/stm32g0xx_hal_rcc.c ****      (++)  |-----------------|------------------|------------------|
 196:Drivers/STM32G0xx_HAL_Driver/Src/stm32g0xx_hal_rcc.c ****      (++)  |0WS(1 CPU cycles)|  HCLK <= 24      |  HCLK <= 8       |
 197:Drivers/STM32G0xx_HAL_Driver/Src/stm32g0xx_hal_rcc.c ****      (++)  |-----------------|------------------|------------------|
 198:Drivers/STM32G0xx_HAL_Driver/Src/stm32g0xx_hal_rcc.c ****      (++)  |1WS(2 CPU cycles)|  HCLK <= 48      |  HCLK <= 16      |
 199:Drivers/STM32G0xx_HAL_Driver/Src/stm32g0xx_hal_rcc.c ****      (++)  |-----------------|------------------|------------------|
 200:Drivers/STM32G0xx_HAL_Driver/Src/stm32g0xx_hal_rcc.c ****      (++)  |2WS(3 CPU cycles)|  HCLK <= 64      |           -      |
 201:Drivers/STM32G0xx_HAL_Driver/Src/stm32g0xx_hal_rcc.c ****      (++)  |-----------------|------------------|------------------|
 202:Drivers/STM32G0xx_HAL_Driver/Src/stm32g0xx_hal_rcc.c ****    * @{
ARM GAS  /tmp/ccETUiog.s 			page 5


 203:Drivers/STM32G0xx_HAL_Driver/Src/stm32g0xx_hal_rcc.c ****   */
 204:Drivers/STM32G0xx_HAL_Driver/Src/stm32g0xx_hal_rcc.c **** 
 205:Drivers/STM32G0xx_HAL_Driver/Src/stm32g0xx_hal_rcc.c **** /**
 206:Drivers/STM32G0xx_HAL_Driver/Src/stm32g0xx_hal_rcc.c ****   * @brief  Reset the RCC clock configuration to the default reset state.
 207:Drivers/STM32G0xx_HAL_Driver/Src/stm32g0xx_hal_rcc.c ****   * @note   The default reset state of the clock configuration is given below:
 208:Drivers/STM32G0xx_HAL_Driver/Src/stm32g0xx_hal_rcc.c ****   *            - HSI ON and used as system clock source
 209:Drivers/STM32G0xx_HAL_Driver/Src/stm32g0xx_hal_rcc.c ****   *            - HSE, PLL OFF
 210:Drivers/STM32G0xx_HAL_Driver/Src/stm32g0xx_hal_rcc.c ****   *            - AHB and APB prescaler set to 1.
 211:Drivers/STM32G0xx_HAL_Driver/Src/stm32g0xx_hal_rcc.c ****   *            - CSS, MCO1 OFF
 212:Drivers/STM32G0xx_HAL_Driver/Src/stm32g0xx_hal_rcc.c ****   *            - All interrupts disabled
 213:Drivers/STM32G0xx_HAL_Driver/Src/stm32g0xx_hal_rcc.c ****   * @note   This function does not modify the configuration of the
 214:Drivers/STM32G0xx_HAL_Driver/Src/stm32g0xx_hal_rcc.c ****   *            - Peripheral clocks
 215:Drivers/STM32G0xx_HAL_Driver/Src/stm32g0xx_hal_rcc.c ****   *            - LSI, LSE and RTC clocks
 216:Drivers/STM32G0xx_HAL_Driver/Src/stm32g0xx_hal_rcc.c ****   * @retval HAL status
 217:Drivers/STM32G0xx_HAL_Driver/Src/stm32g0xx_hal_rcc.c ****   */
 218:Drivers/STM32G0xx_HAL_Driver/Src/stm32g0xx_hal_rcc.c **** HAL_StatusTypeDef HAL_RCC_DeInit(void)
 219:Drivers/STM32G0xx_HAL_Driver/Src/stm32g0xx_hal_rcc.c **** {
  28              		.loc 1 219 0
  29              		.cfi_startproc
  30              		@ args = 0, pretend = 0, frame = 0
  31              		@ frame_needed = 0, uses_anonymous_args = 0
  32 0000 70B5     		push	{r4, r5, r6, lr}
  33              	.LCFI0:
  34              		.cfi_def_cfa_offset 16
  35              		.cfi_offset 4, -16
  36              		.cfi_offset 5, -12
  37              		.cfi_offset 6, -8
  38              		.cfi_offset 14, -4
 220:Drivers/STM32G0xx_HAL_Driver/Src/stm32g0xx_hal_rcc.c ****   uint32_t tickstart;
 221:Drivers/STM32G0xx_HAL_Driver/Src/stm32g0xx_hal_rcc.c **** 
 222:Drivers/STM32G0xx_HAL_Driver/Src/stm32g0xx_hal_rcc.c ****   /* Get Start Tick*/
 223:Drivers/STM32G0xx_HAL_Driver/Src/stm32g0xx_hal_rcc.c ****   tickstart = HAL_GetTick();
  39              		.loc 1 223 0
  40 0002 FFF7FEFF 		bl	HAL_GetTick
  41              	.LVL0:
  42 0006 0400     		movs	r4, r0
  43              	.LVL1:
 224:Drivers/STM32G0xx_HAL_Driver/Src/stm32g0xx_hal_rcc.c **** 
 225:Drivers/STM32G0xx_HAL_Driver/Src/stm32g0xx_hal_rcc.c ****   /* Set HSION bit to the reset value */
 226:Drivers/STM32G0xx_HAL_Driver/Src/stm32g0xx_hal_rcc.c ****   SET_BIT(RCC->CR, RCC_CR_HSION);
  44              		.loc 1 226 0
  45 0008 274A     		ldr	r2, .L12
  46 000a 1368     		ldr	r3, [r2]
  47 000c 8021     		movs	r1, #128
  48 000e 4900     		lsls	r1, r1, #1
  49 0010 0B43     		orrs	r3, r1
  50 0012 1360     		str	r3, [r2]
 227:Drivers/STM32G0xx_HAL_Driver/Src/stm32g0xx_hal_rcc.c **** 
 228:Drivers/STM32G0xx_HAL_Driver/Src/stm32g0xx_hal_rcc.c ****   /* Wait till HSI is ready */
 229:Drivers/STM32G0xx_HAL_Driver/Src/stm32g0xx_hal_rcc.c ****   while (READ_BIT(RCC->CR, RCC_CR_HSIRDY) == 0U)
  51              		.loc 1 229 0
  52 0014 04E0     		b	.L2
  53              	.LVL2:
  54              	.L4:
 230:Drivers/STM32G0xx_HAL_Driver/Src/stm32g0xx_hal_rcc.c ****   {
 231:Drivers/STM32G0xx_HAL_Driver/Src/stm32g0xx_hal_rcc.c ****     if ((HAL_GetTick() - tickstart) > HSI_TIMEOUT_VALUE)
  55              		.loc 1 231 0
ARM GAS  /tmp/ccETUiog.s 			page 6


  56 0016 FFF7FEFF 		bl	HAL_GetTick
  57              	.LVL3:
  58 001a 001B     		subs	r0, r0, r4
  59 001c 0228     		cmp	r0, #2
  60 001e 3CD8     		bhi	.L9
  61              	.L2:
 229:Drivers/STM32G0xx_HAL_Driver/Src/stm32g0xx_hal_rcc.c ****   {
  62              		.loc 1 229 0
  63 0020 214B     		ldr	r3, .L12
  64 0022 1B68     		ldr	r3, [r3]
  65 0024 5B05     		lsls	r3, r3, #21
  66 0026 F6D5     		bpl	.L4
 232:Drivers/STM32G0xx_HAL_Driver/Src/stm32g0xx_hal_rcc.c ****     {
 233:Drivers/STM32G0xx_HAL_Driver/Src/stm32g0xx_hal_rcc.c ****       return HAL_TIMEOUT;
 234:Drivers/STM32G0xx_HAL_Driver/Src/stm32g0xx_hal_rcc.c ****     }
 235:Drivers/STM32G0xx_HAL_Driver/Src/stm32g0xx_hal_rcc.c ****   }
 236:Drivers/STM32G0xx_HAL_Driver/Src/stm32g0xx_hal_rcc.c **** 
 237:Drivers/STM32G0xx_HAL_Driver/Src/stm32g0xx_hal_rcc.c ****   /* Set HSITRIM[6:0] bits to the reset value */
 238:Drivers/STM32G0xx_HAL_Driver/Src/stm32g0xx_hal_rcc.c ****   RCC->ICSCR = RCC_ICSCR_HSITRIM_6;
  67              		.loc 1 238 0
  68 0028 1F4D     		ldr	r5, .L12
  69 002a 8023     		movs	r3, #128
  70 002c DB01     		lsls	r3, r3, #7
  71 002e 6B60     		str	r3, [r5, #4]
 239:Drivers/STM32G0xx_HAL_Driver/Src/stm32g0xx_hal_rcc.c **** 
 240:Drivers/STM32G0xx_HAL_Driver/Src/stm32g0xx_hal_rcc.c ****   /* Get Start Tick*/
 241:Drivers/STM32G0xx_HAL_Driver/Src/stm32g0xx_hal_rcc.c ****   tickstart = HAL_GetTick();
  72              		.loc 1 241 0
  73 0030 FFF7FEFF 		bl	HAL_GetTick
  74              	.LVL4:
  75 0034 0400     		movs	r4, r0
  76              	.LVL5:
 242:Drivers/STM32G0xx_HAL_Driver/Src/stm32g0xx_hal_rcc.c **** 
 243:Drivers/STM32G0xx_HAL_Driver/Src/stm32g0xx_hal_rcc.c ****   /* Reset CFGR register (HSI is selected as system clock source) */
 244:Drivers/STM32G0xx_HAL_Driver/Src/stm32g0xx_hal_rcc.c ****   RCC->CFGR = 0x00000000u;
  77              		.loc 1 244 0
  78 0036 0023     		movs	r3, #0
  79 0038 AB60     		str	r3, [r5, #8]
 245:Drivers/STM32G0xx_HAL_Driver/Src/stm32g0xx_hal_rcc.c **** 
 246:Drivers/STM32G0xx_HAL_Driver/Src/stm32g0xx_hal_rcc.c ****   /* Wait till HSI is ready */
 247:Drivers/STM32G0xx_HAL_Driver/Src/stm32g0xx_hal_rcc.c ****   while (READ_BIT(RCC->CFGR, RCC_CFGR_SWS) != 0U)
  80              		.loc 1 247 0
  81 003a 05E0     		b	.L5
  82              	.LVL6:
  83              	.L6:
 248:Drivers/STM32G0xx_HAL_Driver/Src/stm32g0xx_hal_rcc.c ****   {
 249:Drivers/STM32G0xx_HAL_Driver/Src/stm32g0xx_hal_rcc.c ****     if ((HAL_GetTick() - tickstart) > CLOCKSWITCH_TIMEOUT_VALUE)
  84              		.loc 1 249 0
  85 003c FFF7FEFF 		bl	HAL_GetTick
  86              	.LVL7:
  87 0040 001B     		subs	r0, r0, r4
  88 0042 1A4B     		ldr	r3, .L12+4
  89 0044 9842     		cmp	r0, r3
  90 0046 2AD8     		bhi	.L10
  91              	.L5:
 247:Drivers/STM32G0xx_HAL_Driver/Src/stm32g0xx_hal_rcc.c ****   {
  92              		.loc 1 247 0
ARM GAS  /tmp/ccETUiog.s 			page 7


  93 0048 174B     		ldr	r3, .L12
  94 004a 9B68     		ldr	r3, [r3, #8]
  95 004c 3822     		movs	r2, #56
  96 004e 1A42     		tst	r2, r3
  97 0050 F4D1     		bne	.L6
 250:Drivers/STM32G0xx_HAL_Driver/Src/stm32g0xx_hal_rcc.c ****     {
 251:Drivers/STM32G0xx_HAL_Driver/Src/stm32g0xx_hal_rcc.c ****       return HAL_TIMEOUT;
 252:Drivers/STM32G0xx_HAL_Driver/Src/stm32g0xx_hal_rcc.c ****     }
 253:Drivers/STM32G0xx_HAL_Driver/Src/stm32g0xx_hal_rcc.c ****   }
 254:Drivers/STM32G0xx_HAL_Driver/Src/stm32g0xx_hal_rcc.c **** 
 255:Drivers/STM32G0xx_HAL_Driver/Src/stm32g0xx_hal_rcc.c ****   /* Clear CR register in 2 steps: first to clear HSEON in case bypass was enabled */
 256:Drivers/STM32G0xx_HAL_Driver/Src/stm32g0xx_hal_rcc.c ****   RCC->CR = RCC_CR_HSION;
  98              		.loc 1 256 0
  99 0052 154B     		ldr	r3, .L12
 100 0054 C832     		adds	r2, r2, #200
 101 0056 1A60     		str	r2, [r3]
 257:Drivers/STM32G0xx_HAL_Driver/Src/stm32g0xx_hal_rcc.c **** 
 258:Drivers/STM32G0xx_HAL_Driver/Src/stm32g0xx_hal_rcc.c ****   /* Then again to HSEBYP in case bypass was enabled */
 259:Drivers/STM32G0xx_HAL_Driver/Src/stm32g0xx_hal_rcc.c ****   RCC->CR = RCC_CR_HSION;
 102              		.loc 1 259 0
 103 0058 1A60     		str	r2, [r3]
 260:Drivers/STM32G0xx_HAL_Driver/Src/stm32g0xx_hal_rcc.c **** 
 261:Drivers/STM32G0xx_HAL_Driver/Src/stm32g0xx_hal_rcc.c ****   /* Get Start Tick*/
 262:Drivers/STM32G0xx_HAL_Driver/Src/stm32g0xx_hal_rcc.c ****   tickstart = HAL_GetTick();
 104              		.loc 1 262 0
 105 005a FFF7FEFF 		bl	HAL_GetTick
 106              	.LVL8:
 107 005e 0400     		movs	r4, r0
 108              	.LVL9:
 263:Drivers/STM32G0xx_HAL_Driver/Src/stm32g0xx_hal_rcc.c **** 
 264:Drivers/STM32G0xx_HAL_Driver/Src/stm32g0xx_hal_rcc.c ****   /* Wait till PLL is ready */
 265:Drivers/STM32G0xx_HAL_Driver/Src/stm32g0xx_hal_rcc.c ****   while (READ_BIT(RCC->CR, RCC_CR_PLLRDY) != 0U)
 109              		.loc 1 265 0
 110 0060 04E0     		b	.L7
 111              	.LVL10:
 112              	.L8:
 266:Drivers/STM32G0xx_HAL_Driver/Src/stm32g0xx_hal_rcc.c ****   {
 267:Drivers/STM32G0xx_HAL_Driver/Src/stm32g0xx_hal_rcc.c ****     if ((HAL_GetTick() - tickstart) > PLL_TIMEOUT_VALUE)
 113              		.loc 1 267 0
 114 0062 FFF7FEFF 		bl	HAL_GetTick
 115              	.LVL11:
 116 0066 001B     		subs	r0, r0, r4
 117 0068 0228     		cmp	r0, #2
 118 006a 1AD8     		bhi	.L11
 119              	.L7:
 265:Drivers/STM32G0xx_HAL_Driver/Src/stm32g0xx_hal_rcc.c ****   {
 120              		.loc 1 265 0
 121 006c 0E4B     		ldr	r3, .L12
 122 006e 1B68     		ldr	r3, [r3]
 123 0070 9B01     		lsls	r3, r3, #6
 124 0072 F6D4     		bmi	.L8
 268:Drivers/STM32G0xx_HAL_Driver/Src/stm32g0xx_hal_rcc.c ****     {
 269:Drivers/STM32G0xx_HAL_Driver/Src/stm32g0xx_hal_rcc.c ****       return HAL_TIMEOUT;
 270:Drivers/STM32G0xx_HAL_Driver/Src/stm32g0xx_hal_rcc.c ****     }
 271:Drivers/STM32G0xx_HAL_Driver/Src/stm32g0xx_hal_rcc.c ****   }
 272:Drivers/STM32G0xx_HAL_Driver/Src/stm32g0xx_hal_rcc.c **** 
 273:Drivers/STM32G0xx_HAL_Driver/Src/stm32g0xx_hal_rcc.c ****   /* once PLL is OFF, reset PLLCFGR register to default value */
ARM GAS  /tmp/ccETUiog.s 			page 8


 274:Drivers/STM32G0xx_HAL_Driver/Src/stm32g0xx_hal_rcc.c ****   RCC->PLLCFGR = RCC_PLLCFGR_PLLN_4;
 125              		.loc 1 274 0
 126 0074 0C4B     		ldr	r3, .L12
 127 0076 8022     		movs	r2, #128
 128 0078 5201     		lsls	r2, r2, #5
 129 007a DA60     		str	r2, [r3, #12]
 275:Drivers/STM32G0xx_HAL_Driver/Src/stm32g0xx_hal_rcc.c **** 
 276:Drivers/STM32G0xx_HAL_Driver/Src/stm32g0xx_hal_rcc.c ****   /* Disable all interrupts */
 277:Drivers/STM32G0xx_HAL_Driver/Src/stm32g0xx_hal_rcc.c ****   RCC->CIER = 0x00000000u;
 130              		.loc 1 277 0
 131 007c 0022     		movs	r2, #0
 132 007e 9A61     		str	r2, [r3, #24]
 278:Drivers/STM32G0xx_HAL_Driver/Src/stm32g0xx_hal_rcc.c **** 
 279:Drivers/STM32G0xx_HAL_Driver/Src/stm32g0xx_hal_rcc.c ****   /* Clear all flags */
 280:Drivers/STM32G0xx_HAL_Driver/Src/stm32g0xx_hal_rcc.c ****   RCC->CICR = 0xFFFFFFFFu;
 133              		.loc 1 280 0
 134 0080 013A     		subs	r2, r2, #1
 135 0082 1A62     		str	r2, [r3, #32]
 281:Drivers/STM32G0xx_HAL_Driver/Src/stm32g0xx_hal_rcc.c **** 
 282:Drivers/STM32G0xx_HAL_Driver/Src/stm32g0xx_hal_rcc.c ****   /* Update the SystemCoreClock global variable */
 283:Drivers/STM32G0xx_HAL_Driver/Src/stm32g0xx_hal_rcc.c ****   SystemCoreClock = HSI_VALUE;
 136              		.loc 1 283 0
 137 0084 0A4A     		ldr	r2, .L12+8
 138 0086 0B4B     		ldr	r3, .L12+12
 139 0088 1A60     		str	r2, [r3]
 284:Drivers/STM32G0xx_HAL_Driver/Src/stm32g0xx_hal_rcc.c **** 
 285:Drivers/STM32G0xx_HAL_Driver/Src/stm32g0xx_hal_rcc.c ****   /* Adapt Systick interrupt period */
 286:Drivers/STM32G0xx_HAL_Driver/Src/stm32g0xx_hal_rcc.c ****   if (HAL_InitTick(uwTickPrio) != HAL_OK)
 140              		.loc 1 286 0
 141 008a 0B4B     		ldr	r3, .L12+16
 142 008c 1868     		ldr	r0, [r3]
 143 008e FFF7FEFF 		bl	HAL_InitTick
 144              	.LVL12:
 145 0092 0028     		cmp	r0, #0
 146 0094 06D0     		beq	.L3
 287:Drivers/STM32G0xx_HAL_Driver/Src/stm32g0xx_hal_rcc.c ****   {
 288:Drivers/STM32G0xx_HAL_Driver/Src/stm32g0xx_hal_rcc.c ****     return HAL_ERROR;
 147              		.loc 1 288 0
 148 0096 0120     		movs	r0, #1
 149 0098 04E0     		b	.L3
 150              	.L9:
 233:Drivers/STM32G0xx_HAL_Driver/Src/stm32g0xx_hal_rcc.c ****     }
 151              		.loc 1 233 0
 152 009a 0320     		movs	r0, #3
 153 009c 02E0     		b	.L3
 154              	.L10:
 251:Drivers/STM32G0xx_HAL_Driver/Src/stm32g0xx_hal_rcc.c ****     }
 155              		.loc 1 251 0
 156 009e 0320     		movs	r0, #3
 157 00a0 00E0     		b	.L3
 158              	.L11:
 269:Drivers/STM32G0xx_HAL_Driver/Src/stm32g0xx_hal_rcc.c ****     }
 159              		.loc 1 269 0
 160 00a2 0320     		movs	r0, #3
 161              	.L3:
 289:Drivers/STM32G0xx_HAL_Driver/Src/stm32g0xx_hal_rcc.c ****   }
 290:Drivers/STM32G0xx_HAL_Driver/Src/stm32g0xx_hal_rcc.c ****   else
ARM GAS  /tmp/ccETUiog.s 			page 9


 291:Drivers/STM32G0xx_HAL_Driver/Src/stm32g0xx_hal_rcc.c ****   {
 292:Drivers/STM32G0xx_HAL_Driver/Src/stm32g0xx_hal_rcc.c ****     return HAL_OK;
 293:Drivers/STM32G0xx_HAL_Driver/Src/stm32g0xx_hal_rcc.c ****   }
 294:Drivers/STM32G0xx_HAL_Driver/Src/stm32g0xx_hal_rcc.c **** }
 162              		.loc 1 294 0
 163              		@ sp needed
 164              	.LVL13:
 165 00a4 70BD     		pop	{r4, r5, r6, pc}
 166              	.L13:
 167 00a6 C046     		.align	2
 168              	.L12:
 169 00a8 00100240 		.word	1073876992
 170 00ac 88130000 		.word	5000
 171 00b0 0024F400 		.word	16000000
 172 00b4 00000000 		.word	SystemCoreClock
 173 00b8 00000000 		.word	uwTickPrio
 174              		.cfi_endproc
 175              	.LFE310:
 177              		.section	.text.HAL_RCC_OscConfig,"ax",%progbits
 178              		.align	2
 179              		.global	HAL_RCC_OscConfig
 180              		.code	16
 181              		.thumb_func
 183              	HAL_RCC_OscConfig:
 184              	.LFB311:
 295:Drivers/STM32G0xx_HAL_Driver/Src/stm32g0xx_hal_rcc.c **** 
 296:Drivers/STM32G0xx_HAL_Driver/Src/stm32g0xx_hal_rcc.c **** /**
 297:Drivers/STM32G0xx_HAL_Driver/Src/stm32g0xx_hal_rcc.c ****   * @brief  Initialize the RCC Oscillators according to the specified parameters in the
 298:Drivers/STM32G0xx_HAL_Driver/Src/stm32g0xx_hal_rcc.c ****   *         @ref RCC_OscInitTypeDef.
 299:Drivers/STM32G0xx_HAL_Driver/Src/stm32g0xx_hal_rcc.c ****   * @param  RCC_OscInitStruct pointer to a @ref RCC_OscInitTypeDef structure that
 300:Drivers/STM32G0xx_HAL_Driver/Src/stm32g0xx_hal_rcc.c ****   *         contains the configuration information for the RCC Oscillators.
 301:Drivers/STM32G0xx_HAL_Driver/Src/stm32g0xx_hal_rcc.c ****   * @note   The PLL is not disabled when used as system clock.
 302:Drivers/STM32G0xx_HAL_Driver/Src/stm32g0xx_hal_rcc.c ****   * @note   Transition HSE Bypass to HSE On and HSE On to HSE Bypass are not
 303:Drivers/STM32G0xx_HAL_Driver/Src/stm32g0xx_hal_rcc.c ****   *         supported by this function. User should request a transition to HSE Off
 304:Drivers/STM32G0xx_HAL_Driver/Src/stm32g0xx_hal_rcc.c ****   *         first and then to HSE On or HSE Bypass.
 305:Drivers/STM32G0xx_HAL_Driver/Src/stm32g0xx_hal_rcc.c ****   * @note   Transition LSE Bypass to LSE On and LSE On to LSE Bypass are not
 306:Drivers/STM32G0xx_HAL_Driver/Src/stm32g0xx_hal_rcc.c ****   *         supported by this function. User should request a transition to LSE Off
 307:Drivers/STM32G0xx_HAL_Driver/Src/stm32g0xx_hal_rcc.c ****   *         first and then to LSE On or LSE Bypass.
 308:Drivers/STM32G0xx_HAL_Driver/Src/stm32g0xx_hal_rcc.c ****   * @retval HAL status
 309:Drivers/STM32G0xx_HAL_Driver/Src/stm32g0xx_hal_rcc.c ****   */
 310:Drivers/STM32G0xx_HAL_Driver/Src/stm32g0xx_hal_rcc.c **** HAL_StatusTypeDef HAL_RCC_OscConfig(RCC_OscInitTypeDef  *RCC_OscInitStruct)
 311:Drivers/STM32G0xx_HAL_Driver/Src/stm32g0xx_hal_rcc.c **** {
 185              		.loc 1 311 0
 186              		.cfi_startproc
 187              		@ args = 0, pretend = 0, frame = 8
 188              		@ frame_needed = 0, uses_anonymous_args = 0
 189              	.LVL14:
 190 0000 70B5     		push	{r4, r5, r6, lr}
 191              	.LCFI1:
 192              		.cfi_def_cfa_offset 16
 193              		.cfi_offset 4, -16
 194              		.cfi_offset 5, -12
 195              		.cfi_offset 6, -8
 196              		.cfi_offset 14, -4
 197 0002 82B0     		sub	sp, sp, #8
 198              	.LCFI2:
 199              		.cfi_def_cfa_offset 24
ARM GAS  /tmp/ccETUiog.s 			page 10


 200 0004 041E     		subs	r4, r0, #0
 312:Drivers/STM32G0xx_HAL_Driver/Src/stm32g0xx_hal_rcc.c ****   uint32_t tickstart;
 313:Drivers/STM32G0xx_HAL_Driver/Src/stm32g0xx_hal_rcc.c ****   uint32_t temp_sysclksrc;
 314:Drivers/STM32G0xx_HAL_Driver/Src/stm32g0xx_hal_rcc.c ****   uint32_t temp_pllckcfg;
 315:Drivers/STM32G0xx_HAL_Driver/Src/stm32g0xx_hal_rcc.c **** 
 316:Drivers/STM32G0xx_HAL_Driver/Src/stm32g0xx_hal_rcc.c ****   /* Check Null pointer */
 317:Drivers/STM32G0xx_HAL_Driver/Src/stm32g0xx_hal_rcc.c ****   if (RCC_OscInitStruct == NULL)
 201              		.loc 1 317 0
 202 0006 00D1     		bne	.LCB171
 203 0008 29E2     		b	.L70	@long jump
 204              	.LCB171:
 318:Drivers/STM32G0xx_HAL_Driver/Src/stm32g0xx_hal_rcc.c ****   {
 319:Drivers/STM32G0xx_HAL_Driver/Src/stm32g0xx_hal_rcc.c ****     return HAL_ERROR;
 320:Drivers/STM32G0xx_HAL_Driver/Src/stm32g0xx_hal_rcc.c ****   }
 321:Drivers/STM32G0xx_HAL_Driver/Src/stm32g0xx_hal_rcc.c **** 
 322:Drivers/STM32G0xx_HAL_Driver/Src/stm32g0xx_hal_rcc.c ****   /* Check the parameters */
 323:Drivers/STM32G0xx_HAL_Driver/Src/stm32g0xx_hal_rcc.c ****   assert_param(IS_RCC_OSCILLATORTYPE(RCC_OscInitStruct->OscillatorType));
 324:Drivers/STM32G0xx_HAL_Driver/Src/stm32g0xx_hal_rcc.c **** 
 325:Drivers/STM32G0xx_HAL_Driver/Src/stm32g0xx_hal_rcc.c ****   /*------------------------------- HSE Configuration ------------------------*/
 326:Drivers/STM32G0xx_HAL_Driver/Src/stm32g0xx_hal_rcc.c ****   if (((RCC_OscInitStruct->OscillatorType) & RCC_OSCILLATORTYPE_HSE) == RCC_OSCILLATORTYPE_HSE)
 205              		.loc 1 326 0
 206 000a 0368     		ldr	r3, [r0]
 207 000c DB07     		lsls	r3, r3, #31
 208 000e 59D5     		bpl	.L16
 327:Drivers/STM32G0xx_HAL_Driver/Src/stm32g0xx_hal_rcc.c ****   {
 328:Drivers/STM32G0xx_HAL_Driver/Src/stm32g0xx_hal_rcc.c ****     /* Check the parameters */
 329:Drivers/STM32G0xx_HAL_Driver/Src/stm32g0xx_hal_rcc.c ****     assert_param(IS_RCC_HSE(RCC_OscInitStruct->HSEState));
 330:Drivers/STM32G0xx_HAL_Driver/Src/stm32g0xx_hal_rcc.c **** 
 331:Drivers/STM32G0xx_HAL_Driver/Src/stm32g0xx_hal_rcc.c ****     temp_sysclksrc = __HAL_RCC_GET_SYSCLK_SOURCE();
 209              		.loc 1 331 0
 210 0010 BD4A     		ldr	r2, .L97
 211 0012 9368     		ldr	r3, [r2, #8]
 212 0014 3821     		movs	r1, #56
 213 0016 0B40     		ands	r3, r1
 214              	.LVL15:
 332:Drivers/STM32G0xx_HAL_Driver/Src/stm32g0xx_hal_rcc.c ****     temp_pllckcfg = __HAL_RCC_GET_PLL_OSCSOURCE();
 215              		.loc 1 332 0
 216 0018 D268     		ldr	r2, [r2, #12]
 217 001a 3539     		subs	r1, r1, #53
 218 001c 0A40     		ands	r2, r1
 219              	.LVL16:
 333:Drivers/STM32G0xx_HAL_Driver/Src/stm32g0xx_hal_rcc.c **** 
 334:Drivers/STM32G0xx_HAL_Driver/Src/stm32g0xx_hal_rcc.c ****     /* When the HSE is used as system clock or clock source for PLL in these cases it is not allowe
 335:Drivers/STM32G0xx_HAL_Driver/Src/stm32g0xx_hal_rcc.c ****     if (((temp_sysclksrc == RCC_SYSCLKSOURCE_STATUS_PLLCLK) && (temp_pllckcfg == RCC_PLLSOURCE_HSE)
 220              		.loc 1 335 0
 221 001e 102B     		cmp	r3, #16
 222 0020 01D1     		bne	.L17
 223              		.loc 1 335 0 is_stmt 0 discriminator 1
 224 0022 032A     		cmp	r2, #3
 225 0024 01D0     		beq	.L18
 226              	.L17:
 336:Drivers/STM32G0xx_HAL_Driver/Src/stm32g0xx_hal_rcc.c ****         || (temp_sysclksrc == RCC_SYSCLKSOURCE_STATUS_HSE))
 227              		.loc 1 336 0 is_stmt 1
 228 0026 082B     		cmp	r3, #8
 229 0028 07D1     		bne	.L19
 230              	.L18:
 337:Drivers/STM32G0xx_HAL_Driver/Src/stm32g0xx_hal_rcc.c ****     {
ARM GAS  /tmp/ccETUiog.s 			page 11


 338:Drivers/STM32G0xx_HAL_Driver/Src/stm32g0xx_hal_rcc.c ****       if ((READ_BIT(RCC->CR, RCC_CR_HSERDY) != 0U) && (RCC_OscInitStruct->HSEState == RCC_HSE_OFF))
 231              		.loc 1 338 0
 232 002a B74B     		ldr	r3, .L97
 233              	.LVL17:
 234 002c 1B68     		ldr	r3, [r3]
 235 002e 9B03     		lsls	r3, r3, #14
 236 0030 48D5     		bpl	.L16
 237              		.loc 1 338 0 is_stmt 0 discriminator 1
 238 0032 6368     		ldr	r3, [r4, #4]
 239 0034 002B     		cmp	r3, #0
 240 0036 45D1     		bne	.L16
 241 0038 13E2     		b	.L71
 242              	.LVL18:
 243              	.L19:
 339:Drivers/STM32G0xx_HAL_Driver/Src/stm32g0xx_hal_rcc.c ****       {
 340:Drivers/STM32G0xx_HAL_Driver/Src/stm32g0xx_hal_rcc.c ****         return HAL_ERROR;
 341:Drivers/STM32G0xx_HAL_Driver/Src/stm32g0xx_hal_rcc.c ****       }
 342:Drivers/STM32G0xx_HAL_Driver/Src/stm32g0xx_hal_rcc.c ****     }
 343:Drivers/STM32G0xx_HAL_Driver/Src/stm32g0xx_hal_rcc.c ****     else
 344:Drivers/STM32G0xx_HAL_Driver/Src/stm32g0xx_hal_rcc.c ****     {
 345:Drivers/STM32G0xx_HAL_Driver/Src/stm32g0xx_hal_rcc.c ****       /* Set the new HSE configuration ---------------------------------------*/
 346:Drivers/STM32G0xx_HAL_Driver/Src/stm32g0xx_hal_rcc.c ****       __HAL_RCC_HSE_CONFIG(RCC_OscInitStruct->HSEState);
 244              		.loc 1 346 0 is_stmt 1
 245 003a 6368     		ldr	r3, [r4, #4]
 246              	.LVL19:
 247 003c 8022     		movs	r2, #128
 248              	.LVL20:
 249 003e 5202     		lsls	r2, r2, #9
 250 0040 9342     		cmp	r3, r2
 251 0042 06D1     		bne	.L20
 252              		.loc 1 346 0 is_stmt 0 discriminator 1
 253 0044 B04A     		ldr	r2, .L97
 254 0046 1368     		ldr	r3, [r2]
 255 0048 8021     		movs	r1, #128
 256 004a 4902     		lsls	r1, r1, #9
 257 004c 0B43     		orrs	r3, r1
 258 004e 1360     		str	r3, [r2]
 259 0050 18E0     		b	.L21
 260              	.L20:
 261              		.loc 1 346 0 discriminator 2
 262 0052 A022     		movs	r2, #160
 263 0054 D202     		lsls	r2, r2, #11
 264 0056 9342     		cmp	r3, r2
 265 0058 0BD1     		bne	.L22
 266              		.loc 1 346 0 discriminator 3
 267 005a AB4B     		ldr	r3, .L97
 268 005c 1A68     		ldr	r2, [r3]
 269 005e 8021     		movs	r1, #128
 270 0060 C902     		lsls	r1, r1, #11
 271 0062 0A43     		orrs	r2, r1
 272 0064 1A60     		str	r2, [r3]
 273 0066 1A68     		ldr	r2, [r3]
 274 0068 8021     		movs	r1, #128
 275 006a 4902     		lsls	r1, r1, #9
 276 006c 0A43     		orrs	r2, r1
 277 006e 1A60     		str	r2, [r3]
 278 0070 08E0     		b	.L21
ARM GAS  /tmp/ccETUiog.s 			page 12


 279              	.L22:
 280              		.loc 1 346 0 discriminator 4
 281 0072 A54B     		ldr	r3, .L97
 282 0074 1968     		ldr	r1, [r3]
 283 0076 A54A     		ldr	r2, .L97+4
 284 0078 0A40     		ands	r2, r1
 285 007a 1A60     		str	r2, [r3]
 286 007c 1968     		ldr	r1, [r3]
 287 007e A44A     		ldr	r2, .L97+8
 288 0080 0A40     		ands	r2, r1
 289 0082 1A60     		str	r2, [r3]
 290              	.L21:
 347:Drivers/STM32G0xx_HAL_Driver/Src/stm32g0xx_hal_rcc.c **** 
 348:Drivers/STM32G0xx_HAL_Driver/Src/stm32g0xx_hal_rcc.c ****       /* Check the HSE State */
 349:Drivers/STM32G0xx_HAL_Driver/Src/stm32g0xx_hal_rcc.c ****       if (RCC_OscInitStruct->HSEState != RCC_HSE_OFF)
 291              		.loc 1 349 0 is_stmt 1
 292 0084 6368     		ldr	r3, [r4, #4]
 293 0086 002B     		cmp	r3, #0
 294 0088 0ED0     		beq	.L23
 350:Drivers/STM32G0xx_HAL_Driver/Src/stm32g0xx_hal_rcc.c ****       {
 351:Drivers/STM32G0xx_HAL_Driver/Src/stm32g0xx_hal_rcc.c ****         /* Get Start Tick*/
 352:Drivers/STM32G0xx_HAL_Driver/Src/stm32g0xx_hal_rcc.c ****         tickstart = HAL_GetTick();
 295              		.loc 1 352 0
 296 008a FFF7FEFF 		bl	HAL_GetTick
 297              	.LVL21:
 298 008e 0500     		movs	r5, r0
 299              	.LVL22:
 353:Drivers/STM32G0xx_HAL_Driver/Src/stm32g0xx_hal_rcc.c **** 
 354:Drivers/STM32G0xx_HAL_Driver/Src/stm32g0xx_hal_rcc.c ****         /* Wait till HSE is ready */
 355:Drivers/STM32G0xx_HAL_Driver/Src/stm32g0xx_hal_rcc.c ****         while (READ_BIT(RCC->CR, RCC_CR_HSERDY) == 0U)
 300              		.loc 1 355 0
 301 0090 05E0     		b	.L24
 302              	.LVL23:
 303              	.L25:
 356:Drivers/STM32G0xx_HAL_Driver/Src/stm32g0xx_hal_rcc.c ****         {
 357:Drivers/STM32G0xx_HAL_Driver/Src/stm32g0xx_hal_rcc.c ****           if ((HAL_GetTick() - tickstart) > HSE_TIMEOUT_VALUE)
 304              		.loc 1 357 0
 305 0092 FFF7FEFF 		bl	HAL_GetTick
 306              	.LVL24:
 307 0096 401B     		subs	r0, r0, r5
 308 0098 6428     		cmp	r0, #100
 309 009a 00D9     		bls	.LCB277
 310 009c E3E1     		b	.L72	@long jump
 311              	.LCB277:
 312              	.L24:
 355:Drivers/STM32G0xx_HAL_Driver/Src/stm32g0xx_hal_rcc.c ****         {
 313              		.loc 1 355 0
 314 009e 9A4B     		ldr	r3, .L97
 315 00a0 1B68     		ldr	r3, [r3]
 316 00a2 9B03     		lsls	r3, r3, #14
 317 00a4 F5D5     		bpl	.L25
 318 00a6 0DE0     		b	.L16
 319              	.LVL25:
 320              	.L23:
 358:Drivers/STM32G0xx_HAL_Driver/Src/stm32g0xx_hal_rcc.c ****           {
 359:Drivers/STM32G0xx_HAL_Driver/Src/stm32g0xx_hal_rcc.c ****             return HAL_TIMEOUT;
 360:Drivers/STM32G0xx_HAL_Driver/Src/stm32g0xx_hal_rcc.c ****           }
ARM GAS  /tmp/ccETUiog.s 			page 13


 361:Drivers/STM32G0xx_HAL_Driver/Src/stm32g0xx_hal_rcc.c ****         }
 362:Drivers/STM32G0xx_HAL_Driver/Src/stm32g0xx_hal_rcc.c ****       }
 363:Drivers/STM32G0xx_HAL_Driver/Src/stm32g0xx_hal_rcc.c ****       else
 364:Drivers/STM32G0xx_HAL_Driver/Src/stm32g0xx_hal_rcc.c ****       {
 365:Drivers/STM32G0xx_HAL_Driver/Src/stm32g0xx_hal_rcc.c ****         /* Get Start Tick*/
 366:Drivers/STM32G0xx_HAL_Driver/Src/stm32g0xx_hal_rcc.c ****         tickstart = HAL_GetTick();
 321              		.loc 1 366 0
 322 00a8 FFF7FEFF 		bl	HAL_GetTick
 323              	.LVL26:
 324 00ac 0500     		movs	r5, r0
 325              	.LVL27:
 367:Drivers/STM32G0xx_HAL_Driver/Src/stm32g0xx_hal_rcc.c **** 
 368:Drivers/STM32G0xx_HAL_Driver/Src/stm32g0xx_hal_rcc.c ****         /* Wait till HSE is disabled */
 369:Drivers/STM32G0xx_HAL_Driver/Src/stm32g0xx_hal_rcc.c ****         while (READ_BIT(RCC->CR, RCC_CR_HSERDY) != 0U)
 326              		.loc 1 369 0
 327 00ae 05E0     		b	.L26
 328              	.LVL28:
 329              	.L27:
 370:Drivers/STM32G0xx_HAL_Driver/Src/stm32g0xx_hal_rcc.c ****         {
 371:Drivers/STM32G0xx_HAL_Driver/Src/stm32g0xx_hal_rcc.c ****           if ((HAL_GetTick() - tickstart) > HSE_TIMEOUT_VALUE)
 330              		.loc 1 371 0
 331 00b0 FFF7FEFF 		bl	HAL_GetTick
 332              	.LVL29:
 333 00b4 401B     		subs	r0, r0, r5
 334 00b6 6428     		cmp	r0, #100
 335 00b8 00D9     		bls	.LCB306
 336 00ba D6E1     		b	.L73	@long jump
 337              	.LCB306:
 338              	.L26:
 369:Drivers/STM32G0xx_HAL_Driver/Src/stm32g0xx_hal_rcc.c ****         {
 339              		.loc 1 369 0
 340 00bc 924B     		ldr	r3, .L97
 341 00be 1B68     		ldr	r3, [r3]
 342 00c0 9B03     		lsls	r3, r3, #14
 343 00c2 F5D4     		bmi	.L27
 344              	.LVL30:
 345              	.L16:
 372:Drivers/STM32G0xx_HAL_Driver/Src/stm32g0xx_hal_rcc.c ****           {
 373:Drivers/STM32G0xx_HAL_Driver/Src/stm32g0xx_hal_rcc.c ****             return HAL_TIMEOUT;
 374:Drivers/STM32G0xx_HAL_Driver/Src/stm32g0xx_hal_rcc.c ****           }
 375:Drivers/STM32G0xx_HAL_Driver/Src/stm32g0xx_hal_rcc.c ****         }
 376:Drivers/STM32G0xx_HAL_Driver/Src/stm32g0xx_hal_rcc.c ****       }
 377:Drivers/STM32G0xx_HAL_Driver/Src/stm32g0xx_hal_rcc.c ****     }
 378:Drivers/STM32G0xx_HAL_Driver/Src/stm32g0xx_hal_rcc.c ****   }
 379:Drivers/STM32G0xx_HAL_Driver/Src/stm32g0xx_hal_rcc.c ****   /*----------------------------- HSI Configuration --------------------------*/
 380:Drivers/STM32G0xx_HAL_Driver/Src/stm32g0xx_hal_rcc.c ****   if (((RCC_OscInitStruct->OscillatorType) & RCC_OSCILLATORTYPE_HSI) == RCC_OSCILLATORTYPE_HSI)
 346              		.loc 1 380 0
 347 00c4 2368     		ldr	r3, [r4]
 348 00c6 9B07     		lsls	r3, r3, #30
 349 00c8 6DD5     		bpl	.L28
 381:Drivers/STM32G0xx_HAL_Driver/Src/stm32g0xx_hal_rcc.c ****   {
 382:Drivers/STM32G0xx_HAL_Driver/Src/stm32g0xx_hal_rcc.c ****     /* Check the parameters */
 383:Drivers/STM32G0xx_HAL_Driver/Src/stm32g0xx_hal_rcc.c ****     assert_param(IS_RCC_HSI(RCC_OscInitStruct->HSIState));
 384:Drivers/STM32G0xx_HAL_Driver/Src/stm32g0xx_hal_rcc.c ****     assert_param(IS_RCC_HSI_CALIBRATION_VALUE(RCC_OscInitStruct->HSICalibrationValue));
 385:Drivers/STM32G0xx_HAL_Driver/Src/stm32g0xx_hal_rcc.c ****     assert_param(IS_RCC_HSIDIV(RCC_OscInitStruct->HSIDiv));
 386:Drivers/STM32G0xx_HAL_Driver/Src/stm32g0xx_hal_rcc.c **** 
 387:Drivers/STM32G0xx_HAL_Driver/Src/stm32g0xx_hal_rcc.c ****     /* Check if HSI16 is used as system clock or as PLL source when PLL is selected as system clock
ARM GAS  /tmp/ccETUiog.s 			page 14


 388:Drivers/STM32G0xx_HAL_Driver/Src/stm32g0xx_hal_rcc.c ****     temp_sysclksrc = __HAL_RCC_GET_SYSCLK_SOURCE();
 350              		.loc 1 388 0
 351 00ca 8F4A     		ldr	r2, .L97
 352 00cc 9368     		ldr	r3, [r2, #8]
 353 00ce 3821     		movs	r1, #56
 354 00d0 0B40     		ands	r3, r1
 355              	.LVL31:
 389:Drivers/STM32G0xx_HAL_Driver/Src/stm32g0xx_hal_rcc.c ****     temp_pllckcfg = __HAL_RCC_GET_PLL_OSCSOURCE();
 356              		.loc 1 389 0
 357 00d2 D268     		ldr	r2, [r2, #12]
 358 00d4 3539     		subs	r1, r1, #53
 359 00d6 0A40     		ands	r2, r1
 360              	.LVL32:
 390:Drivers/STM32G0xx_HAL_Driver/Src/stm32g0xx_hal_rcc.c ****     if (((temp_sysclksrc == RCC_SYSCLKSOURCE_STATUS_PLLCLK) && (temp_pllckcfg == RCC_PLLSOURCE_HSI)
 361              		.loc 1 390 0
 362 00d8 102B     		cmp	r3, #16
 363 00da 01D1     		bne	.L29
 364              		.loc 1 390 0 is_stmt 0 discriminator 1
 365 00dc 022A     		cmp	r2, #2
 366 00de 01D0     		beq	.L30
 367              	.L29:
 391:Drivers/STM32G0xx_HAL_Driver/Src/stm32g0xx_hal_rcc.c ****         || (temp_sysclksrc == RCC_SYSCLKSOURCE_STATUS_HSI))
 368              		.loc 1 391 0 is_stmt 1
 369 00e0 002B     		cmp	r3, #0
 370 00e2 27D1     		bne	.L31
 371              	.L30:
 392:Drivers/STM32G0xx_HAL_Driver/Src/stm32g0xx_hal_rcc.c ****     {
 393:Drivers/STM32G0xx_HAL_Driver/Src/stm32g0xx_hal_rcc.c ****       /* When HSI is used as system clock or as PLL input clock it can not be disabled */
 394:Drivers/STM32G0xx_HAL_Driver/Src/stm32g0xx_hal_rcc.c ****       if ((READ_BIT(RCC->CR, RCC_CR_HSIRDY) != 0U) && (RCC_OscInitStruct->HSIState == RCC_HSI_OFF))
 372              		.loc 1 394 0
 373 00e4 884A     		ldr	r2, .L97
 374              	.LVL33:
 375 00e6 1268     		ldr	r2, [r2]
 376 00e8 5205     		lsls	r2, r2, #21
 377 00ea 03D5     		bpl	.L32
 378              		.loc 1 394 0 is_stmt 0 discriminator 1
 379 00ec E268     		ldr	r2, [r4, #12]
 380 00ee 002A     		cmp	r2, #0
 381 00f0 00D1     		bne	.LCB353
 382 00f2 BCE1     		b	.L74	@long jump
 383              	.LCB353:
 384              	.L32:
 395:Drivers/STM32G0xx_HAL_Driver/Src/stm32g0xx_hal_rcc.c ****       {
 396:Drivers/STM32G0xx_HAL_Driver/Src/stm32g0xx_hal_rcc.c ****         return HAL_ERROR;
 397:Drivers/STM32G0xx_HAL_Driver/Src/stm32g0xx_hal_rcc.c ****       }
 398:Drivers/STM32G0xx_HAL_Driver/Src/stm32g0xx_hal_rcc.c ****       /* Otherwise, just the calibration is allowed */
 399:Drivers/STM32G0xx_HAL_Driver/Src/stm32g0xx_hal_rcc.c ****       else
 400:Drivers/STM32G0xx_HAL_Driver/Src/stm32g0xx_hal_rcc.c ****       {
 401:Drivers/STM32G0xx_HAL_Driver/Src/stm32g0xx_hal_rcc.c ****         /* Adjusts the Internal High Speed oscillator (HSI) calibration value.*/
 402:Drivers/STM32G0xx_HAL_Driver/Src/stm32g0xx_hal_rcc.c ****         __HAL_RCC_HSI_CALIBRATIONVALUE_ADJUST(RCC_OscInitStruct->HSICalibrationValue);
 385              		.loc 1 402 0 is_stmt 1
 386 00f4 8448     		ldr	r0, .L97
 387 00f6 4168     		ldr	r1, [r0, #4]
 388 00f8 864A     		ldr	r2, .L97+12
 389 00fa 0A40     		ands	r2, r1
 390 00fc 6169     		ldr	r1, [r4, #20]
 391 00fe 0902     		lsls	r1, r1, #8
ARM GAS  /tmp/ccETUiog.s 			page 15


 392 0100 0A43     		orrs	r2, r1
 393 0102 4260     		str	r2, [r0, #4]
 403:Drivers/STM32G0xx_HAL_Driver/Src/stm32g0xx_hal_rcc.c **** 
 404:Drivers/STM32G0xx_HAL_Driver/Src/stm32g0xx_hal_rcc.c ****         if (temp_sysclksrc == RCC_SYSCLKSOURCE_STATUS_HSI)
 394              		.loc 1 404 0
 395 0104 002B     		cmp	r3, #0
 396 0106 0ED1     		bne	.L33
 405:Drivers/STM32G0xx_HAL_Driver/Src/stm32g0xx_hal_rcc.c ****         {
 406:Drivers/STM32G0xx_HAL_Driver/Src/stm32g0xx_hal_rcc.c ****           /* Adjust the HSI16 division factor */
 407:Drivers/STM32G0xx_HAL_Driver/Src/stm32g0xx_hal_rcc.c ****           __HAL_RCC_HSI_CONFIG(RCC_OscInitStruct->HSIDiv);
 397              		.loc 1 407 0
 398 0108 0168     		ldr	r1, [r0]
 399 010a 834A     		ldr	r2, .L97+16
 400 010c 0A40     		ands	r2, r1
 401 010e 2169     		ldr	r1, [r4, #16]
 402 0110 0A43     		orrs	r2, r1
 403 0112 0260     		str	r2, [r0]
 408:Drivers/STM32G0xx_HAL_Driver/Src/stm32g0xx_hal_rcc.c **** 
 409:Drivers/STM32G0xx_HAL_Driver/Src/stm32g0xx_hal_rcc.c ****           /* Update the SystemCoreClock global variable with HSISYS value  */
 410:Drivers/STM32G0xx_HAL_Driver/Src/stm32g0xx_hal_rcc.c ****           SystemCoreClock = (HSI_VALUE / (1UL << ((READ_BIT(RCC->CR, RCC_CR_HSIDIV)) >> RCC_CR_HSID
 404              		.loc 1 410 0
 405 0114 0368     		ldr	r3, [r0]
 406              	.LVL34:
 407 0116 DB0A     		lsrs	r3, r3, #11
 408 0118 0722     		movs	r2, #7
 409 011a 1340     		ands	r3, r2
 410 011c 7F4A     		ldr	r2, .L97+20
 411 011e DA40     		lsrs	r2, r2, r3
 412 0120 1300     		movs	r3, r2
 413 0122 7F4A     		ldr	r2, .L97+24
 414 0124 1360     		str	r3, [r2]
 415              	.L33:
 411:Drivers/STM32G0xx_HAL_Driver/Src/stm32g0xx_hal_rcc.c ****         }
 412:Drivers/STM32G0xx_HAL_Driver/Src/stm32g0xx_hal_rcc.c **** 
 413:Drivers/STM32G0xx_HAL_Driver/Src/stm32g0xx_hal_rcc.c ****         /* Adapt Systick interrupt period */
 414:Drivers/STM32G0xx_HAL_Driver/Src/stm32g0xx_hal_rcc.c ****         if (HAL_InitTick(uwTickPrio) != HAL_OK)
 416              		.loc 1 414 0
 417 0126 7F4B     		ldr	r3, .L97+28
 418 0128 1868     		ldr	r0, [r3]
 419 012a FFF7FEFF 		bl	HAL_InitTick
 420              	.LVL35:
 421 012e 0028     		cmp	r0, #0
 422 0130 39D0     		beq	.L28
 423 0132 9EE1     		b	.L75
 424              	.LVL36:
 425              	.L31:
 415:Drivers/STM32G0xx_HAL_Driver/Src/stm32g0xx_hal_rcc.c ****         {
 416:Drivers/STM32G0xx_HAL_Driver/Src/stm32g0xx_hal_rcc.c ****           return HAL_ERROR;
 417:Drivers/STM32G0xx_HAL_Driver/Src/stm32g0xx_hal_rcc.c ****         }
 418:Drivers/STM32G0xx_HAL_Driver/Src/stm32g0xx_hal_rcc.c ****       }
 419:Drivers/STM32G0xx_HAL_Driver/Src/stm32g0xx_hal_rcc.c ****     }
 420:Drivers/STM32G0xx_HAL_Driver/Src/stm32g0xx_hal_rcc.c ****     else
 421:Drivers/STM32G0xx_HAL_Driver/Src/stm32g0xx_hal_rcc.c ****     {
 422:Drivers/STM32G0xx_HAL_Driver/Src/stm32g0xx_hal_rcc.c ****       /* Check the HSI State */
 423:Drivers/STM32G0xx_HAL_Driver/Src/stm32g0xx_hal_rcc.c ****       if (RCC_OscInitStruct->HSIState != RCC_HSI_OFF)
 426              		.loc 1 423 0
 427 0134 E368     		ldr	r3, [r4, #12]
ARM GAS  /tmp/ccETUiog.s 			page 16


 428              	.LVL37:
 429 0136 002B     		cmp	r3, #0
 430 0138 22D0     		beq	.L34
 424:Drivers/STM32G0xx_HAL_Driver/Src/stm32g0xx_hal_rcc.c ****       {
 425:Drivers/STM32G0xx_HAL_Driver/Src/stm32g0xx_hal_rcc.c ****         /* Configure the HSI16 division factor */
 426:Drivers/STM32G0xx_HAL_Driver/Src/stm32g0xx_hal_rcc.c ****         __HAL_RCC_HSI_CONFIG(RCC_OscInitStruct->HSIDiv);
 431              		.loc 1 426 0
 432 013a 734B     		ldr	r3, .L97
 433 013c 1968     		ldr	r1, [r3]
 434 013e 764A     		ldr	r2, .L97+16
 435              	.LVL38:
 436 0140 0A40     		ands	r2, r1
 437 0142 2169     		ldr	r1, [r4, #16]
 438 0144 0A43     		orrs	r2, r1
 439 0146 1A60     		str	r2, [r3]
 427:Drivers/STM32G0xx_HAL_Driver/Src/stm32g0xx_hal_rcc.c **** 
 428:Drivers/STM32G0xx_HAL_Driver/Src/stm32g0xx_hal_rcc.c ****         /* Enable the Internal High Speed oscillator (HSI16). */
 429:Drivers/STM32G0xx_HAL_Driver/Src/stm32g0xx_hal_rcc.c ****         __HAL_RCC_HSI_ENABLE();
 440              		.loc 1 429 0
 441 0148 1A68     		ldr	r2, [r3]
 442 014a 8021     		movs	r1, #128
 443 014c 4900     		lsls	r1, r1, #1
 444 014e 0A43     		orrs	r2, r1
 445 0150 1A60     		str	r2, [r3]
 430:Drivers/STM32G0xx_HAL_Driver/Src/stm32g0xx_hal_rcc.c **** 
 431:Drivers/STM32G0xx_HAL_Driver/Src/stm32g0xx_hal_rcc.c ****         /* Get Start Tick*/
 432:Drivers/STM32G0xx_HAL_Driver/Src/stm32g0xx_hal_rcc.c ****         tickstart = HAL_GetTick();
 446              		.loc 1 432 0
 447 0152 FFF7FEFF 		bl	HAL_GetTick
 448              	.LVL39:
 449 0156 0500     		movs	r5, r0
 450              	.LVL40:
 433:Drivers/STM32G0xx_HAL_Driver/Src/stm32g0xx_hal_rcc.c **** 
 434:Drivers/STM32G0xx_HAL_Driver/Src/stm32g0xx_hal_rcc.c ****         /* Wait till HSI is ready */
 435:Drivers/STM32G0xx_HAL_Driver/Src/stm32g0xx_hal_rcc.c ****         while (READ_BIT(RCC->CR, RCC_CR_HSIRDY) == 0U)
 451              		.loc 1 435 0
 452 0158 05E0     		b	.L35
 453              	.LVL41:
 454              	.L36:
 436:Drivers/STM32G0xx_HAL_Driver/Src/stm32g0xx_hal_rcc.c ****         {
 437:Drivers/STM32G0xx_HAL_Driver/Src/stm32g0xx_hal_rcc.c ****           if ((HAL_GetTick() - tickstart) > HSI_TIMEOUT_VALUE)
 455              		.loc 1 437 0
 456 015a FFF7FEFF 		bl	HAL_GetTick
 457              	.LVL42:
 458 015e 401B     		subs	r0, r0, r5
 459 0160 0228     		cmp	r0, #2
 460 0162 00D9     		bls	.LCB431
 461 0164 87E1     		b	.L76	@long jump
 462              	.LCB431:
 463              	.L35:
 435:Drivers/STM32G0xx_HAL_Driver/Src/stm32g0xx_hal_rcc.c ****         {
 464              		.loc 1 435 0
 465 0166 684B     		ldr	r3, .L97
 466 0168 1B68     		ldr	r3, [r3]
 467 016a 5B05     		lsls	r3, r3, #21
 468 016c F5D5     		bpl	.L36
 438:Drivers/STM32G0xx_HAL_Driver/Src/stm32g0xx_hal_rcc.c ****           {
ARM GAS  /tmp/ccETUiog.s 			page 17


 439:Drivers/STM32G0xx_HAL_Driver/Src/stm32g0xx_hal_rcc.c ****             return HAL_TIMEOUT;
 440:Drivers/STM32G0xx_HAL_Driver/Src/stm32g0xx_hal_rcc.c ****           }
 441:Drivers/STM32G0xx_HAL_Driver/Src/stm32g0xx_hal_rcc.c ****         }
 442:Drivers/STM32G0xx_HAL_Driver/Src/stm32g0xx_hal_rcc.c **** 
 443:Drivers/STM32G0xx_HAL_Driver/Src/stm32g0xx_hal_rcc.c ****         /* Adjusts the Internal High Speed oscillator (HSI) calibration value.*/
 444:Drivers/STM32G0xx_HAL_Driver/Src/stm32g0xx_hal_rcc.c ****         __HAL_RCC_HSI_CALIBRATIONVALUE_ADJUST(RCC_OscInitStruct->HSICalibrationValue);
 469              		.loc 1 444 0
 470 016e 6649     		ldr	r1, .L97
 471 0170 4A68     		ldr	r2, [r1, #4]
 472 0172 684B     		ldr	r3, .L97+12
 473 0174 1340     		ands	r3, r2
 474 0176 6269     		ldr	r2, [r4, #20]
 475 0178 1202     		lsls	r2, r2, #8
 476 017a 1343     		orrs	r3, r2
 477 017c 4B60     		str	r3, [r1, #4]
 478 017e 12E0     		b	.L28
 479              	.LVL43:
 480              	.L34:
 445:Drivers/STM32G0xx_HAL_Driver/Src/stm32g0xx_hal_rcc.c ****       }
 446:Drivers/STM32G0xx_HAL_Driver/Src/stm32g0xx_hal_rcc.c ****       else
 447:Drivers/STM32G0xx_HAL_Driver/Src/stm32g0xx_hal_rcc.c ****       {
 448:Drivers/STM32G0xx_HAL_Driver/Src/stm32g0xx_hal_rcc.c ****         /* Disable the Internal High Speed oscillator (HSI16). */
 449:Drivers/STM32G0xx_HAL_Driver/Src/stm32g0xx_hal_rcc.c ****         __HAL_RCC_HSI_DISABLE();
 481              		.loc 1 449 0
 482 0180 614A     		ldr	r2, .L97
 483              	.LVL44:
 484 0182 1168     		ldr	r1, [r2]
 485 0184 684B     		ldr	r3, .L97+32
 486 0186 0B40     		ands	r3, r1
 487 0188 1360     		str	r3, [r2]
 450:Drivers/STM32G0xx_HAL_Driver/Src/stm32g0xx_hal_rcc.c **** 
 451:Drivers/STM32G0xx_HAL_Driver/Src/stm32g0xx_hal_rcc.c ****         /* Get Start Tick*/
 452:Drivers/STM32G0xx_HAL_Driver/Src/stm32g0xx_hal_rcc.c ****         tickstart = HAL_GetTick();
 488              		.loc 1 452 0
 489 018a FFF7FEFF 		bl	HAL_GetTick
 490              	.LVL45:
 491 018e 0500     		movs	r5, r0
 492              	.LVL46:
 453:Drivers/STM32G0xx_HAL_Driver/Src/stm32g0xx_hal_rcc.c **** 
 454:Drivers/STM32G0xx_HAL_Driver/Src/stm32g0xx_hal_rcc.c ****         /* Wait till HSI is disabled */
 455:Drivers/STM32G0xx_HAL_Driver/Src/stm32g0xx_hal_rcc.c ****         while (READ_BIT(RCC->CR, RCC_CR_HSIRDY) != 0U)
 493              		.loc 1 455 0
 494 0190 05E0     		b	.L37
 495              	.LVL47:
 496              	.L38:
 456:Drivers/STM32G0xx_HAL_Driver/Src/stm32g0xx_hal_rcc.c ****         {
 457:Drivers/STM32G0xx_HAL_Driver/Src/stm32g0xx_hal_rcc.c ****           if ((HAL_GetTick() - tickstart) > HSI_TIMEOUT_VALUE)
 497              		.loc 1 457 0
 498 0192 FFF7FEFF 		bl	HAL_GetTick
 499              	.LVL48:
 500 0196 401B     		subs	r0, r0, r5
 501 0198 0228     		cmp	r0, #2
 502 019a 00D9     		bls	.LCB475
 503 019c 6DE1     		b	.L77	@long jump
 504              	.LCB475:
 505              	.L37:
 455:Drivers/STM32G0xx_HAL_Driver/Src/stm32g0xx_hal_rcc.c ****         {
ARM GAS  /tmp/ccETUiog.s 			page 18


 506              		.loc 1 455 0
 507 019e 5A4B     		ldr	r3, .L97
 508 01a0 1B68     		ldr	r3, [r3]
 509 01a2 5B05     		lsls	r3, r3, #21
 510 01a4 F5D4     		bmi	.L38
 511              	.LVL49:
 512              	.L28:
 458:Drivers/STM32G0xx_HAL_Driver/Src/stm32g0xx_hal_rcc.c ****           {
 459:Drivers/STM32G0xx_HAL_Driver/Src/stm32g0xx_hal_rcc.c ****             return HAL_TIMEOUT;
 460:Drivers/STM32G0xx_HAL_Driver/Src/stm32g0xx_hal_rcc.c ****           }
 461:Drivers/STM32G0xx_HAL_Driver/Src/stm32g0xx_hal_rcc.c ****         }
 462:Drivers/STM32G0xx_HAL_Driver/Src/stm32g0xx_hal_rcc.c ****       }
 463:Drivers/STM32G0xx_HAL_Driver/Src/stm32g0xx_hal_rcc.c ****     }
 464:Drivers/STM32G0xx_HAL_Driver/Src/stm32g0xx_hal_rcc.c ****   }
 465:Drivers/STM32G0xx_HAL_Driver/Src/stm32g0xx_hal_rcc.c ****   /*------------------------------ LSI Configuration -------------------------*/
 466:Drivers/STM32G0xx_HAL_Driver/Src/stm32g0xx_hal_rcc.c ****   if (((RCC_OscInitStruct->OscillatorType) & RCC_OSCILLATORTYPE_LSI) == RCC_OSCILLATORTYPE_LSI)
 513              		.loc 1 466 0
 514 01a6 2368     		ldr	r3, [r4]
 515 01a8 1B07     		lsls	r3, r3, #28
 516 01aa 37D5     		bpl	.L39
 467:Drivers/STM32G0xx_HAL_Driver/Src/stm32g0xx_hal_rcc.c ****   {
 468:Drivers/STM32G0xx_HAL_Driver/Src/stm32g0xx_hal_rcc.c ****     /* Check the parameters */
 469:Drivers/STM32G0xx_HAL_Driver/Src/stm32g0xx_hal_rcc.c ****     assert_param(IS_RCC_LSI(RCC_OscInitStruct->LSIState));
 470:Drivers/STM32G0xx_HAL_Driver/Src/stm32g0xx_hal_rcc.c **** 
 471:Drivers/STM32G0xx_HAL_Driver/Src/stm32g0xx_hal_rcc.c ****     /* Check if LSI is used as system clock */
 472:Drivers/STM32G0xx_HAL_Driver/Src/stm32g0xx_hal_rcc.c ****     if (__HAL_RCC_GET_SYSCLK_SOURCE() == RCC_SYSCLKSOURCE_STATUS_LSI)
 517              		.loc 1 472 0
 518 01ac 564B     		ldr	r3, .L97
 519 01ae 9B68     		ldr	r3, [r3, #8]
 520 01b0 3822     		movs	r2, #56
 521 01b2 1340     		ands	r3, r2
 522 01b4 182B     		cmp	r3, #24
 523 01b6 07D1     		bne	.L40
 473:Drivers/STM32G0xx_HAL_Driver/Src/stm32g0xx_hal_rcc.c ****     {
 474:Drivers/STM32G0xx_HAL_Driver/Src/stm32g0xx_hal_rcc.c ****       /* When LSI is used as system clock it will not be disabled */
 475:Drivers/STM32G0xx_HAL_Driver/Src/stm32g0xx_hal_rcc.c ****       if ((((RCC->CSR) & RCC_CSR_LSIRDY) != 0U) && (RCC_OscInitStruct->LSIState == RCC_LSI_OFF))
 524              		.loc 1 475 0
 525 01b8 534B     		ldr	r3, .L97
 526 01ba 1B6E     		ldr	r3, [r3, #96]
 527 01bc 9B07     		lsls	r3, r3, #30
 528 01be 2DD5     		bpl	.L39
 529              		.loc 1 475 0 is_stmt 0 discriminator 1
 530 01c0 A369     		ldr	r3, [r4, #24]
 531 01c2 002B     		cmp	r3, #0
 532 01c4 2AD1     		bne	.L39
 533 01c6 5AE1     		b	.L78
 534              	.L40:
 476:Drivers/STM32G0xx_HAL_Driver/Src/stm32g0xx_hal_rcc.c ****       {
 477:Drivers/STM32G0xx_HAL_Driver/Src/stm32g0xx_hal_rcc.c ****         return HAL_ERROR;
 478:Drivers/STM32G0xx_HAL_Driver/Src/stm32g0xx_hal_rcc.c ****       }
 479:Drivers/STM32G0xx_HAL_Driver/Src/stm32g0xx_hal_rcc.c ****     }
 480:Drivers/STM32G0xx_HAL_Driver/Src/stm32g0xx_hal_rcc.c ****     else
 481:Drivers/STM32G0xx_HAL_Driver/Src/stm32g0xx_hal_rcc.c ****     {
 482:Drivers/STM32G0xx_HAL_Driver/Src/stm32g0xx_hal_rcc.c ****       /* Check the LSI State */
 483:Drivers/STM32G0xx_HAL_Driver/Src/stm32g0xx_hal_rcc.c ****       if (RCC_OscInitStruct->LSIState != RCC_LSI_OFF)
 535              		.loc 1 483 0 is_stmt 1
 536 01c8 A369     		ldr	r3, [r4, #24]
ARM GAS  /tmp/ccETUiog.s 			page 19


 537 01ca 002B     		cmp	r3, #0
 538 01cc 13D0     		beq	.L41
 484:Drivers/STM32G0xx_HAL_Driver/Src/stm32g0xx_hal_rcc.c ****       {
 485:Drivers/STM32G0xx_HAL_Driver/Src/stm32g0xx_hal_rcc.c ****         /* Enable the Internal Low Speed oscillator (LSI). */
 486:Drivers/STM32G0xx_HAL_Driver/Src/stm32g0xx_hal_rcc.c ****         __HAL_RCC_LSI_ENABLE();
 539              		.loc 1 486 0
 540 01ce 4E4A     		ldr	r2, .L97
 541 01d0 116E     		ldr	r1, [r2, #96]
 542 01d2 0123     		movs	r3, #1
 543 01d4 0B43     		orrs	r3, r1
 544 01d6 1366     		str	r3, [r2, #96]
 487:Drivers/STM32G0xx_HAL_Driver/Src/stm32g0xx_hal_rcc.c **** 
 488:Drivers/STM32G0xx_HAL_Driver/Src/stm32g0xx_hal_rcc.c ****         /* Get Start Tick*/
 489:Drivers/STM32G0xx_HAL_Driver/Src/stm32g0xx_hal_rcc.c ****         tickstart = HAL_GetTick();
 545              		.loc 1 489 0
 546 01d8 FFF7FEFF 		bl	HAL_GetTick
 547              	.LVL50:
 548 01dc 0500     		movs	r5, r0
 549              	.LVL51:
 490:Drivers/STM32G0xx_HAL_Driver/Src/stm32g0xx_hal_rcc.c **** 
 491:Drivers/STM32G0xx_HAL_Driver/Src/stm32g0xx_hal_rcc.c ****         /* Wait till LSI is ready */
 492:Drivers/STM32G0xx_HAL_Driver/Src/stm32g0xx_hal_rcc.c ****         while (READ_BIT(RCC->CSR, RCC_CSR_LSIRDY) == 0U)
 550              		.loc 1 492 0
 551 01de 05E0     		b	.L42
 552              	.LVL52:
 553              	.L43:
 493:Drivers/STM32G0xx_HAL_Driver/Src/stm32g0xx_hal_rcc.c ****         {
 494:Drivers/STM32G0xx_HAL_Driver/Src/stm32g0xx_hal_rcc.c ****           if ((HAL_GetTick() - tickstart) > LSI_TIMEOUT_VALUE)
 554              		.loc 1 494 0
 555 01e0 FFF7FEFF 		bl	HAL_GetTick
 556              	.LVL53:
 557 01e4 401B     		subs	r0, r0, r5
 558 01e6 0228     		cmp	r0, #2
 559 01e8 00D9     		bls	.LCB537
 560 01ea 4AE1     		b	.L79	@long jump
 561              	.LCB537:
 562              	.L42:
 492:Drivers/STM32G0xx_HAL_Driver/Src/stm32g0xx_hal_rcc.c ****         {
 563              		.loc 1 492 0
 564 01ec 464B     		ldr	r3, .L97
 565 01ee 1B6E     		ldr	r3, [r3, #96]
 566 01f0 9B07     		lsls	r3, r3, #30
 567 01f2 F5D5     		bpl	.L43
 568 01f4 12E0     		b	.L39
 569              	.LVL54:
 570              	.L41:
 495:Drivers/STM32G0xx_HAL_Driver/Src/stm32g0xx_hal_rcc.c ****           {
 496:Drivers/STM32G0xx_HAL_Driver/Src/stm32g0xx_hal_rcc.c ****             return HAL_TIMEOUT;
 497:Drivers/STM32G0xx_HAL_Driver/Src/stm32g0xx_hal_rcc.c ****           }
 498:Drivers/STM32G0xx_HAL_Driver/Src/stm32g0xx_hal_rcc.c ****         }
 499:Drivers/STM32G0xx_HAL_Driver/Src/stm32g0xx_hal_rcc.c ****       }
 500:Drivers/STM32G0xx_HAL_Driver/Src/stm32g0xx_hal_rcc.c ****       else
 501:Drivers/STM32G0xx_HAL_Driver/Src/stm32g0xx_hal_rcc.c ****       {
 502:Drivers/STM32G0xx_HAL_Driver/Src/stm32g0xx_hal_rcc.c ****         /* Disable the Internal Low Speed oscillator (LSI). */
 503:Drivers/STM32G0xx_HAL_Driver/Src/stm32g0xx_hal_rcc.c ****         __HAL_RCC_LSI_DISABLE();
 571              		.loc 1 503 0
 572 01f6 444A     		ldr	r2, .L97
ARM GAS  /tmp/ccETUiog.s 			page 20


 573 01f8 136E     		ldr	r3, [r2, #96]
 574 01fa 0121     		movs	r1, #1
 575 01fc 8B43     		bics	r3, r1
 576 01fe 1366     		str	r3, [r2, #96]
 504:Drivers/STM32G0xx_HAL_Driver/Src/stm32g0xx_hal_rcc.c **** 
 505:Drivers/STM32G0xx_HAL_Driver/Src/stm32g0xx_hal_rcc.c ****         /* Get Start Tick*/
 506:Drivers/STM32G0xx_HAL_Driver/Src/stm32g0xx_hal_rcc.c ****         tickstart = HAL_GetTick();
 577              		.loc 1 506 0
 578 0200 FFF7FEFF 		bl	HAL_GetTick
 579              	.LVL55:
 580 0204 0500     		movs	r5, r0
 581              	.LVL56:
 507:Drivers/STM32G0xx_HAL_Driver/Src/stm32g0xx_hal_rcc.c **** 
 508:Drivers/STM32G0xx_HAL_Driver/Src/stm32g0xx_hal_rcc.c ****         /* Wait till LSI is disabled */
 509:Drivers/STM32G0xx_HAL_Driver/Src/stm32g0xx_hal_rcc.c ****         while (READ_BIT(RCC->CSR, RCC_CSR_LSIRDY) != 0U)
 582              		.loc 1 509 0
 583 0206 05E0     		b	.L44
 584              	.LVL57:
 585              	.L45:
 510:Drivers/STM32G0xx_HAL_Driver/Src/stm32g0xx_hal_rcc.c ****         {
 511:Drivers/STM32G0xx_HAL_Driver/Src/stm32g0xx_hal_rcc.c ****           if ((HAL_GetTick() - tickstart) > LSI_TIMEOUT_VALUE)
 586              		.loc 1 511 0
 587 0208 FFF7FEFF 		bl	HAL_GetTick
 588              	.LVL58:
 589 020c 401B     		subs	r0, r0, r5
 590 020e 0228     		cmp	r0, #2
 591 0210 00D9     		bls	.LCB569
 592 0212 38E1     		b	.L80	@long jump
 593              	.LCB569:
 594              	.L44:
 509:Drivers/STM32G0xx_HAL_Driver/Src/stm32g0xx_hal_rcc.c ****         {
 595              		.loc 1 509 0
 596 0214 3C4B     		ldr	r3, .L97
 597 0216 1B6E     		ldr	r3, [r3, #96]
 598 0218 9B07     		lsls	r3, r3, #30
 599 021a F5D4     		bmi	.L45
 600              	.LVL59:
 601              	.L39:
 512:Drivers/STM32G0xx_HAL_Driver/Src/stm32g0xx_hal_rcc.c ****           {
 513:Drivers/STM32G0xx_HAL_Driver/Src/stm32g0xx_hal_rcc.c ****             return HAL_TIMEOUT;
 514:Drivers/STM32G0xx_HAL_Driver/Src/stm32g0xx_hal_rcc.c ****           }
 515:Drivers/STM32G0xx_HAL_Driver/Src/stm32g0xx_hal_rcc.c ****         }
 516:Drivers/STM32G0xx_HAL_Driver/Src/stm32g0xx_hal_rcc.c ****       }
 517:Drivers/STM32G0xx_HAL_Driver/Src/stm32g0xx_hal_rcc.c ****     }
 518:Drivers/STM32G0xx_HAL_Driver/Src/stm32g0xx_hal_rcc.c ****   }
 519:Drivers/STM32G0xx_HAL_Driver/Src/stm32g0xx_hal_rcc.c ****   /*------------------------------ LSE Configuration -------------------------*/
 520:Drivers/STM32G0xx_HAL_Driver/Src/stm32g0xx_hal_rcc.c ****   if (((RCC_OscInitStruct->OscillatorType) & RCC_OSCILLATORTYPE_LSE) == RCC_OSCILLATORTYPE_LSE)
 602              		.loc 1 520 0
 603 021c 2368     		ldr	r3, [r4]
 604 021e 5B07     		lsls	r3, r3, #29
 605 0220 00D4     		bmi	.LCB586
 606 0222 99E0     		b	.L46	@long jump
 607              	.LCB586:
 608              	.LVL60:
 609              	.LBB4:
 521:Drivers/STM32G0xx_HAL_Driver/Src/stm32g0xx_hal_rcc.c ****   {
 522:Drivers/STM32G0xx_HAL_Driver/Src/stm32g0xx_hal_rcc.c ****     FlagStatus       pwrclkchanged = RESET;
ARM GAS  /tmp/ccETUiog.s 			page 21


 523:Drivers/STM32G0xx_HAL_Driver/Src/stm32g0xx_hal_rcc.c **** 
 524:Drivers/STM32G0xx_HAL_Driver/Src/stm32g0xx_hal_rcc.c ****     /* Check the parameters */
 525:Drivers/STM32G0xx_HAL_Driver/Src/stm32g0xx_hal_rcc.c ****     assert_param(IS_RCC_LSE(RCC_OscInitStruct->LSEState));
 526:Drivers/STM32G0xx_HAL_Driver/Src/stm32g0xx_hal_rcc.c **** 
 527:Drivers/STM32G0xx_HAL_Driver/Src/stm32g0xx_hal_rcc.c ****     /* When the LSE is used as system clock, it is not allowed disable it */
 528:Drivers/STM32G0xx_HAL_Driver/Src/stm32g0xx_hal_rcc.c ****     if (__HAL_RCC_GET_SYSCLK_SOURCE() == RCC_SYSCLKSOURCE_STATUS_LSE)
 610              		.loc 1 528 0
 611 0224 384B     		ldr	r3, .L97
 612 0226 9B68     		ldr	r3, [r3, #8]
 613 0228 3822     		movs	r2, #56
 614 022a 1340     		ands	r3, r2
 615 022c 202B     		cmp	r3, #32
 616 022e 09D1     		bne	.L47
 529:Drivers/STM32G0xx_HAL_Driver/Src/stm32g0xx_hal_rcc.c ****     {
 530:Drivers/STM32G0xx_HAL_Driver/Src/stm32g0xx_hal_rcc.c ****       if ((((RCC->BDCR) & RCC_BDCR_LSERDY) != 0U) && (RCC_OscInitStruct->LSEState == RCC_LSE_OFF))
 617              		.loc 1 530 0
 618 0230 354B     		ldr	r3, .L97
 619 0232 DB6D     		ldr	r3, [r3, #92]
 620 0234 9B07     		lsls	r3, r3, #30
 621 0236 00D4     		bmi	.LCB600
 622 0238 8EE0     		b	.L46	@long jump
 623              	.LCB600:
 624              		.loc 1 530 0 is_stmt 0 discriminator 1
 625 023a A368     		ldr	r3, [r4, #8]
 626 023c 002B     		cmp	r3, #0
 627 023e 00D0     		beq	.LCB604
 628 0240 8AE0     		b	.L46	@long jump
 629              	.LCB604:
 630 0242 22E1     		b	.L81
 631              	.L47:
 531:Drivers/STM32G0xx_HAL_Driver/Src/stm32g0xx_hal_rcc.c ****       {
 532:Drivers/STM32G0xx_HAL_Driver/Src/stm32g0xx_hal_rcc.c ****         return HAL_ERROR;
 533:Drivers/STM32G0xx_HAL_Driver/Src/stm32g0xx_hal_rcc.c ****       }
 534:Drivers/STM32G0xx_HAL_Driver/Src/stm32g0xx_hal_rcc.c ****     }
 535:Drivers/STM32G0xx_HAL_Driver/Src/stm32g0xx_hal_rcc.c ****     else
 536:Drivers/STM32G0xx_HAL_Driver/Src/stm32g0xx_hal_rcc.c ****     {
 537:Drivers/STM32G0xx_HAL_Driver/Src/stm32g0xx_hal_rcc.c ****       /* Update LSE configuration in Backup Domain control register    */
 538:Drivers/STM32G0xx_HAL_Driver/Src/stm32g0xx_hal_rcc.c ****       /* Requires to enable write access to Backup Domain of necessary */
 539:Drivers/STM32G0xx_HAL_Driver/Src/stm32g0xx_hal_rcc.c ****       if (__HAL_RCC_PWR_IS_CLK_DISABLED() != 0U)
 632              		.loc 1 539 0 is_stmt 1
 633 0244 304B     		ldr	r3, .L97
 634 0246 DB6B     		ldr	r3, [r3, #60]
 635 0248 DB00     		lsls	r3, r3, #3
 636 024a 01D4     		bmi	.L82
 637 024c 0123     		movs	r3, #1
 638 024e 00E0     		b	.L48
 639              	.L82:
 640 0250 0023     		movs	r3, #0
 641              	.L48:
 642              		.loc 1 539 0 is_stmt 0 discriminator 4
 643 0252 002B     		cmp	r3, #0
 644 0254 0BD0     		beq	.L83
 645              	.LBB5:
 540:Drivers/STM32G0xx_HAL_Driver/Src/stm32g0xx_hal_rcc.c ****       {
 541:Drivers/STM32G0xx_HAL_Driver/Src/stm32g0xx_hal_rcc.c ****         __HAL_RCC_PWR_CLK_ENABLE();
 646              		.loc 1 541 0 is_stmt 1
 647 0256 2C4A     		ldr	r2, .L97
ARM GAS  /tmp/ccETUiog.s 			page 22


 648 0258 D16B     		ldr	r1, [r2, #60]
 649 025a 8023     		movs	r3, #128
 650 025c 5B05     		lsls	r3, r3, #21
 651 025e 1943     		orrs	r1, r3
 652 0260 D163     		str	r1, [r2, #60]
 653 0262 D26B     		ldr	r2, [r2, #60]
 654 0264 1340     		ands	r3, r2
 655 0266 0193     		str	r3, [sp, #4]
 656 0268 019B     		ldr	r3, [sp, #4]
 657              	.LVL61:
 658              	.LBE5:
 542:Drivers/STM32G0xx_HAL_Driver/Src/stm32g0xx_hal_rcc.c ****         pwrclkchanged = SET;
 659              		.loc 1 542 0
 660 026a 0125     		movs	r5, #1
 661 026c 00E0     		b	.L49
 662              	.LVL62:
 663              	.L83:
 522:Drivers/STM32G0xx_HAL_Driver/Src/stm32g0xx_hal_rcc.c **** 
 664              		.loc 1 522 0
 665 026e 0025     		movs	r5, #0
 666              	.LVL63:
 667              	.L49:
 543:Drivers/STM32G0xx_HAL_Driver/Src/stm32g0xx_hal_rcc.c ****       }
 544:Drivers/STM32G0xx_HAL_Driver/Src/stm32g0xx_hal_rcc.c **** 
 545:Drivers/STM32G0xx_HAL_Driver/Src/stm32g0xx_hal_rcc.c ****       if (HAL_IS_BIT_CLR(PWR->CR1, PWR_CR1_DBP))
 668              		.loc 1 545 0
 669 0270 2E4B     		ldr	r3, .L97+36
 670 0272 1B68     		ldr	r3, [r3]
 671 0274 DB05     		lsls	r3, r3, #23
 672 0276 13D4     		bmi	.L50
 546:Drivers/STM32G0xx_HAL_Driver/Src/stm32g0xx_hal_rcc.c ****       {
 547:Drivers/STM32G0xx_HAL_Driver/Src/stm32g0xx_hal_rcc.c ****         /* Enable write access to Backup domain */
 548:Drivers/STM32G0xx_HAL_Driver/Src/stm32g0xx_hal_rcc.c ****         SET_BIT(PWR->CR1, PWR_CR1_DBP);
 673              		.loc 1 548 0
 674 0278 2C4A     		ldr	r2, .L97+36
 675 027a 1368     		ldr	r3, [r2]
 676 027c 8021     		movs	r1, #128
 677 027e 4900     		lsls	r1, r1, #1
 678 0280 0B43     		orrs	r3, r1
 679 0282 1360     		str	r3, [r2]
 549:Drivers/STM32G0xx_HAL_Driver/Src/stm32g0xx_hal_rcc.c **** 
 550:Drivers/STM32G0xx_HAL_Driver/Src/stm32g0xx_hal_rcc.c ****         /* Wait for Backup domain Write protection disable */
 551:Drivers/STM32G0xx_HAL_Driver/Src/stm32g0xx_hal_rcc.c ****         tickstart = HAL_GetTick();
 680              		.loc 1 551 0
 681 0284 FFF7FEFF 		bl	HAL_GetTick
 682              	.LVL64:
 683 0288 0600     		movs	r6, r0
 684              	.LVL65:
 552:Drivers/STM32G0xx_HAL_Driver/Src/stm32g0xx_hal_rcc.c **** 
 553:Drivers/STM32G0xx_HAL_Driver/Src/stm32g0xx_hal_rcc.c ****         while (HAL_IS_BIT_CLR(PWR->CR1, PWR_CR1_DBP))
 685              		.loc 1 553 0
 686 028a 05E0     		b	.L51
 687              	.LVL66:
 688              	.L52:
 554:Drivers/STM32G0xx_HAL_Driver/Src/stm32g0xx_hal_rcc.c ****         {
 555:Drivers/STM32G0xx_HAL_Driver/Src/stm32g0xx_hal_rcc.c ****           if ((HAL_GetTick() - tickstart) > RCC_DBP_TIMEOUT_VALUE)
 689              		.loc 1 555 0
ARM GAS  /tmp/ccETUiog.s 			page 23


 690 028c FFF7FEFF 		bl	HAL_GetTick
 691              	.LVL67:
 692 0290 801B     		subs	r0, r0, r6
 693 0292 0228     		cmp	r0, #2
 694 0294 00D9     		bls	.LCB674
 695 0296 FAE0     		b	.L84	@long jump
 696              	.LCB674:
 697              	.L51:
 553:Drivers/STM32G0xx_HAL_Driver/Src/stm32g0xx_hal_rcc.c ****         {
 698              		.loc 1 553 0
 699 0298 244B     		ldr	r3, .L97+36
 700 029a 1B68     		ldr	r3, [r3]
 701 029c DB05     		lsls	r3, r3, #23
 702 029e F5D5     		bpl	.L52
 703              	.LVL68:
 704              	.L50:
 556:Drivers/STM32G0xx_HAL_Driver/Src/stm32g0xx_hal_rcc.c ****           {
 557:Drivers/STM32G0xx_HAL_Driver/Src/stm32g0xx_hal_rcc.c ****             return HAL_TIMEOUT;
 558:Drivers/STM32G0xx_HAL_Driver/Src/stm32g0xx_hal_rcc.c ****           }
 559:Drivers/STM32G0xx_HAL_Driver/Src/stm32g0xx_hal_rcc.c ****         }
 560:Drivers/STM32G0xx_HAL_Driver/Src/stm32g0xx_hal_rcc.c ****       }
 561:Drivers/STM32G0xx_HAL_Driver/Src/stm32g0xx_hal_rcc.c **** 
 562:Drivers/STM32G0xx_HAL_Driver/Src/stm32g0xx_hal_rcc.c ****       /* Set the new LSE configuration -----------------------------------------*/
 563:Drivers/STM32G0xx_HAL_Driver/Src/stm32g0xx_hal_rcc.c ****       __HAL_RCC_LSE_CONFIG(RCC_OscInitStruct->LSEState);
 705              		.loc 1 563 0
 706 02a0 A368     		ldr	r3, [r4, #8]
 707 02a2 012B     		cmp	r3, #1
 708 02a4 04D1     		bne	.L53
 709              		.loc 1 563 0 is_stmt 0 discriminator 1
 710 02a6 184A     		ldr	r2, .L97
 711 02a8 D16D     		ldr	r1, [r2, #92]
 712 02aa 0B43     		orrs	r3, r1
 713 02ac D365     		str	r3, [r2, #92]
 714 02ae 14E0     		b	.L54
 715              	.L53:
 716              		.loc 1 563 0 discriminator 2
 717 02b0 052B     		cmp	r3, #5
 718 02b2 09D1     		bne	.L55
 719              		.loc 1 563 0 discriminator 3
 720 02b4 144B     		ldr	r3, .L97
 721 02b6 D96D     		ldr	r1, [r3, #92]
 722 02b8 0422     		movs	r2, #4
 723 02ba 0A43     		orrs	r2, r1
 724 02bc DA65     		str	r2, [r3, #92]
 725 02be D96D     		ldr	r1, [r3, #92]
 726 02c0 0122     		movs	r2, #1
 727 02c2 0A43     		orrs	r2, r1
 728 02c4 DA65     		str	r2, [r3, #92]
 729 02c6 08E0     		b	.L54
 730              	.L55:
 731              		.loc 1 563 0 discriminator 4
 732 02c8 0F4B     		ldr	r3, .L97
 733 02ca DA6D     		ldr	r2, [r3, #92]
 734 02cc 0121     		movs	r1, #1
 735 02ce 8A43     		bics	r2, r1
 736 02d0 DA65     		str	r2, [r3, #92]
 737 02d2 DA6D     		ldr	r2, [r3, #92]
ARM GAS  /tmp/ccETUiog.s 			page 24


 738 02d4 0331     		adds	r1, r1, #3
 739 02d6 8A43     		bics	r2, r1
 740 02d8 DA65     		str	r2, [r3, #92]
 741              	.L54:
 564:Drivers/STM32G0xx_HAL_Driver/Src/stm32g0xx_hal_rcc.c **** 
 565:Drivers/STM32G0xx_HAL_Driver/Src/stm32g0xx_hal_rcc.c ****       /* Check the LSE State */
 566:Drivers/STM32G0xx_HAL_Driver/Src/stm32g0xx_hal_rcc.c ****       if (RCC_OscInitStruct->LSEState != RCC_LSE_OFF)
 742              		.loc 1 566 0 is_stmt 1
 743 02da A368     		ldr	r3, [r4, #8]
 744 02dc 002B     		cmp	r3, #0
 745 02de 0FD0     		beq	.L56
 567:Drivers/STM32G0xx_HAL_Driver/Src/stm32g0xx_hal_rcc.c ****       {
 568:Drivers/STM32G0xx_HAL_Driver/Src/stm32g0xx_hal_rcc.c ****         /* Get Start Tick*/
 569:Drivers/STM32G0xx_HAL_Driver/Src/stm32g0xx_hal_rcc.c ****         tickstart = HAL_GetTick();
 746              		.loc 1 569 0
 747 02e0 FFF7FEFF 		bl	HAL_GetTick
 748              	.LVL69:
 749 02e4 0600     		movs	r6, r0
 750              	.LVL70:
 570:Drivers/STM32G0xx_HAL_Driver/Src/stm32g0xx_hal_rcc.c **** 
 571:Drivers/STM32G0xx_HAL_Driver/Src/stm32g0xx_hal_rcc.c ****         /* Wait till LSE is ready */
 572:Drivers/STM32G0xx_HAL_Driver/Src/stm32g0xx_hal_rcc.c ****         while (READ_BIT(RCC->BDCR, RCC_BDCR_LSERDY) == 0U)
 751              		.loc 1 572 0
 752 02e6 06E0     		b	.L57
 753              	.LVL71:
 754              	.L58:
 573:Drivers/STM32G0xx_HAL_Driver/Src/stm32g0xx_hal_rcc.c ****         {
 574:Drivers/STM32G0xx_HAL_Driver/Src/stm32g0xx_hal_rcc.c ****           if ((HAL_GetTick() - tickstart) > RCC_LSE_TIMEOUT_VALUE)
 755              		.loc 1 574 0
 756 02e8 FFF7FEFF 		bl	HAL_GetTick
 757              	.LVL72:
 758 02ec 801B     		subs	r0, r0, r6
 759 02ee 104B     		ldr	r3, .L97+40
 760 02f0 9842     		cmp	r0, r3
 761 02f2 00D9     		bls	.LCB740
 762 02f4 CDE0     		b	.L85	@long jump
 763              	.LCB740:
 764              	.L57:
 572:Drivers/STM32G0xx_HAL_Driver/Src/stm32g0xx_hal_rcc.c ****         {
 765              		.loc 1 572 0
 766 02f6 044B     		ldr	r3, .L97
 767 02f8 DB6D     		ldr	r3, [r3, #92]
 768 02fa 9B07     		lsls	r3, r3, #30
 769 02fc F4D5     		bpl	.L58
 770 02fe 24E0     		b	.L59
 771              	.LVL73:
 772              	.L56:
 575:Drivers/STM32G0xx_HAL_Driver/Src/stm32g0xx_hal_rcc.c ****           {
 576:Drivers/STM32G0xx_HAL_Driver/Src/stm32g0xx_hal_rcc.c ****             return HAL_TIMEOUT;
 577:Drivers/STM32G0xx_HAL_Driver/Src/stm32g0xx_hal_rcc.c ****           }
 578:Drivers/STM32G0xx_HAL_Driver/Src/stm32g0xx_hal_rcc.c ****         }
 579:Drivers/STM32G0xx_HAL_Driver/Src/stm32g0xx_hal_rcc.c ****       }
 580:Drivers/STM32G0xx_HAL_Driver/Src/stm32g0xx_hal_rcc.c ****       else
 581:Drivers/STM32G0xx_HAL_Driver/Src/stm32g0xx_hal_rcc.c ****       {
 582:Drivers/STM32G0xx_HAL_Driver/Src/stm32g0xx_hal_rcc.c ****         /* Get Start Tick*/
 583:Drivers/STM32G0xx_HAL_Driver/Src/stm32g0xx_hal_rcc.c ****         tickstart = HAL_GetTick();
 773              		.loc 1 583 0
ARM GAS  /tmp/ccETUiog.s 			page 25


 774 0300 FFF7FEFF 		bl	HAL_GetTick
 775              	.LVL74:
 776 0304 0600     		movs	r6, r0
 777              	.LVL75:
 584:Drivers/STM32G0xx_HAL_Driver/Src/stm32g0xx_hal_rcc.c **** 
 585:Drivers/STM32G0xx_HAL_Driver/Src/stm32g0xx_hal_rcc.c ****         /* Wait till LSE is disabled */
 586:Drivers/STM32G0xx_HAL_Driver/Src/stm32g0xx_hal_rcc.c ****         while (READ_BIT(RCC->BDCR, RCC_BDCR_LSERDY) != 0U)
 778              		.loc 1 586 0
 779 0306 1CE0     		b	.L60
 780              	.L98:
 781              		.align	2
 782              	.L97:
 783 0308 00100240 		.word	1073876992
 784 030c FFFFFEFF 		.word	-65537
 785 0310 FFFFFBFF 		.word	-262145
 786 0314 FF80FFFF 		.word	-32513
 787 0318 FFC7FFFF 		.word	-14337
 788 031c 0024F400 		.word	16000000
 789 0320 00000000 		.word	SystemCoreClock
 790 0324 00000000 		.word	uwTickPrio
 791 0328 FFFEFFFF 		.word	-257
 792 032c 00700040 		.word	1073770496
 793 0330 88130000 		.word	5000
 794              	.LVL76:
 795              	.L61:
 587:Drivers/STM32G0xx_HAL_Driver/Src/stm32g0xx_hal_rcc.c ****         {
 588:Drivers/STM32G0xx_HAL_Driver/Src/stm32g0xx_hal_rcc.c ****           if ((HAL_GetTick() - tickstart) > RCC_LSE_TIMEOUT_VALUE)
 796              		.loc 1 588 0
 797 0334 FFF7FEFF 		bl	HAL_GetTick
 798              	.LVL77:
 799 0338 801B     		subs	r0, r0, r6
 800 033a 624B     		ldr	r3, .L99
 801 033c 9842     		cmp	r0, r3
 802 033e 00D9     		bls	.LCB784
 803 0340 A9E0     		b	.L86	@long jump
 804              	.LCB784:
 805              	.L60:
 586:Drivers/STM32G0xx_HAL_Driver/Src/stm32g0xx_hal_rcc.c ****         {
 806              		.loc 1 586 0
 807 0342 614B     		ldr	r3, .L99+4
 808 0344 DB6D     		ldr	r3, [r3, #92]
 809 0346 9B07     		lsls	r3, r3, #30
 810 0348 F4D4     		bmi	.L61
 811              	.L59:
 589:Drivers/STM32G0xx_HAL_Driver/Src/stm32g0xx_hal_rcc.c ****           {
 590:Drivers/STM32G0xx_HAL_Driver/Src/stm32g0xx_hal_rcc.c ****             return HAL_TIMEOUT;
 591:Drivers/STM32G0xx_HAL_Driver/Src/stm32g0xx_hal_rcc.c ****           }
 592:Drivers/STM32G0xx_HAL_Driver/Src/stm32g0xx_hal_rcc.c ****         }
 593:Drivers/STM32G0xx_HAL_Driver/Src/stm32g0xx_hal_rcc.c ****       }
 594:Drivers/STM32G0xx_HAL_Driver/Src/stm32g0xx_hal_rcc.c **** 
 595:Drivers/STM32G0xx_HAL_Driver/Src/stm32g0xx_hal_rcc.c ****       /* Restore clock configuration if changed */
 596:Drivers/STM32G0xx_HAL_Driver/Src/stm32g0xx_hal_rcc.c ****       if (pwrclkchanged == SET)
 812              		.loc 1 596 0
 813 034a 012D     		cmp	r5, #1
 814 034c 04D1     		bne	.L46
 597:Drivers/STM32G0xx_HAL_Driver/Src/stm32g0xx_hal_rcc.c ****       {
 598:Drivers/STM32G0xx_HAL_Driver/Src/stm32g0xx_hal_rcc.c ****         __HAL_RCC_PWR_CLK_DISABLE();
ARM GAS  /tmp/ccETUiog.s 			page 26


 815              		.loc 1 598 0
 816 034e 5E4A     		ldr	r2, .L99+4
 817 0350 D16B     		ldr	r1, [r2, #60]
 818 0352 5E4B     		ldr	r3, .L99+8
 819 0354 0B40     		ands	r3, r1
 820 0356 D363     		str	r3, [r2, #60]
 821              	.LVL78:
 822              	.L46:
 823              	.LBE4:
 599:Drivers/STM32G0xx_HAL_Driver/Src/stm32g0xx_hal_rcc.c ****       }
 600:Drivers/STM32G0xx_HAL_Driver/Src/stm32g0xx_hal_rcc.c ****     }
 601:Drivers/STM32G0xx_HAL_Driver/Src/stm32g0xx_hal_rcc.c ****   }
 602:Drivers/STM32G0xx_HAL_Driver/Src/stm32g0xx_hal_rcc.c **** #if defined(RCC_HSI48_SUPPORT)
 603:Drivers/STM32G0xx_HAL_Driver/Src/stm32g0xx_hal_rcc.c ****   /*------------------------------ HSI48 Configuration -----------------------*/
 604:Drivers/STM32G0xx_HAL_Driver/Src/stm32g0xx_hal_rcc.c ****   if (((RCC_OscInitStruct->OscillatorType) & RCC_OSCILLATORTYPE_HSI48) == RCC_OSCILLATORTYPE_HSI48)
 605:Drivers/STM32G0xx_HAL_Driver/Src/stm32g0xx_hal_rcc.c ****   {
 606:Drivers/STM32G0xx_HAL_Driver/Src/stm32g0xx_hal_rcc.c ****     /* Check the parameters */
 607:Drivers/STM32G0xx_HAL_Driver/Src/stm32g0xx_hal_rcc.c ****     assert_param(IS_RCC_HSI48(RCC_OscInitStruct->HSI48State));
 608:Drivers/STM32G0xx_HAL_Driver/Src/stm32g0xx_hal_rcc.c **** 
 609:Drivers/STM32G0xx_HAL_Driver/Src/stm32g0xx_hal_rcc.c ****     /* Check the LSI State */
 610:Drivers/STM32G0xx_HAL_Driver/Src/stm32g0xx_hal_rcc.c ****     if (RCC_OscInitStruct->HSI48State != RCC_HSI48_OFF)
 611:Drivers/STM32G0xx_HAL_Driver/Src/stm32g0xx_hal_rcc.c ****     {
 612:Drivers/STM32G0xx_HAL_Driver/Src/stm32g0xx_hal_rcc.c ****       /* Enable the Internal Low Speed oscillator (HSI48). */
 613:Drivers/STM32G0xx_HAL_Driver/Src/stm32g0xx_hal_rcc.c ****       __HAL_RCC_HSI48_ENABLE();
 614:Drivers/STM32G0xx_HAL_Driver/Src/stm32g0xx_hal_rcc.c **** 
 615:Drivers/STM32G0xx_HAL_Driver/Src/stm32g0xx_hal_rcc.c ****       /* Get Start Tick*/
 616:Drivers/STM32G0xx_HAL_Driver/Src/stm32g0xx_hal_rcc.c ****       tickstart = HAL_GetTick();
 617:Drivers/STM32G0xx_HAL_Driver/Src/stm32g0xx_hal_rcc.c **** 
 618:Drivers/STM32G0xx_HAL_Driver/Src/stm32g0xx_hal_rcc.c ****       /* Wait till HSI48 is ready */
 619:Drivers/STM32G0xx_HAL_Driver/Src/stm32g0xx_hal_rcc.c ****       while (READ_BIT(RCC->CR, RCC_CR_HSI48RDY) == 0U)
 620:Drivers/STM32G0xx_HAL_Driver/Src/stm32g0xx_hal_rcc.c ****       {
 621:Drivers/STM32G0xx_HAL_Driver/Src/stm32g0xx_hal_rcc.c ****         if ((HAL_GetTick() - tickstart) > HSI48_TIMEOUT_VALUE)
 622:Drivers/STM32G0xx_HAL_Driver/Src/stm32g0xx_hal_rcc.c ****         {
 623:Drivers/STM32G0xx_HAL_Driver/Src/stm32g0xx_hal_rcc.c ****           return HAL_TIMEOUT;
 624:Drivers/STM32G0xx_HAL_Driver/Src/stm32g0xx_hal_rcc.c ****         }
 625:Drivers/STM32G0xx_HAL_Driver/Src/stm32g0xx_hal_rcc.c ****       }
 626:Drivers/STM32G0xx_HAL_Driver/Src/stm32g0xx_hal_rcc.c ****     }
 627:Drivers/STM32G0xx_HAL_Driver/Src/stm32g0xx_hal_rcc.c ****     else
 628:Drivers/STM32G0xx_HAL_Driver/Src/stm32g0xx_hal_rcc.c ****     {
 629:Drivers/STM32G0xx_HAL_Driver/Src/stm32g0xx_hal_rcc.c ****       /* Disable the Internal Low Speed oscillator (HSI48). */
 630:Drivers/STM32G0xx_HAL_Driver/Src/stm32g0xx_hal_rcc.c ****       __HAL_RCC_HSI48_DISABLE();
 631:Drivers/STM32G0xx_HAL_Driver/Src/stm32g0xx_hal_rcc.c **** 
 632:Drivers/STM32G0xx_HAL_Driver/Src/stm32g0xx_hal_rcc.c ****       /* Get Start Tick*/
 633:Drivers/STM32G0xx_HAL_Driver/Src/stm32g0xx_hal_rcc.c ****       tickstart = HAL_GetTick();
 634:Drivers/STM32G0xx_HAL_Driver/Src/stm32g0xx_hal_rcc.c **** 
 635:Drivers/STM32G0xx_HAL_Driver/Src/stm32g0xx_hal_rcc.c ****       /* Wait till HSI48 is disabled */
 636:Drivers/STM32G0xx_HAL_Driver/Src/stm32g0xx_hal_rcc.c ****       while (READ_BIT(RCC->CR, RCC_CR_HSI48RDY) != 0U)
 637:Drivers/STM32G0xx_HAL_Driver/Src/stm32g0xx_hal_rcc.c ****       {
 638:Drivers/STM32G0xx_HAL_Driver/Src/stm32g0xx_hal_rcc.c ****         if ((HAL_GetTick() - tickstart) > HSI48_TIMEOUT_VALUE)
 639:Drivers/STM32G0xx_HAL_Driver/Src/stm32g0xx_hal_rcc.c ****         {
 640:Drivers/STM32G0xx_HAL_Driver/Src/stm32g0xx_hal_rcc.c ****           return HAL_TIMEOUT;
 641:Drivers/STM32G0xx_HAL_Driver/Src/stm32g0xx_hal_rcc.c ****         }
 642:Drivers/STM32G0xx_HAL_Driver/Src/stm32g0xx_hal_rcc.c ****       }
 643:Drivers/STM32G0xx_HAL_Driver/Src/stm32g0xx_hal_rcc.c ****     }
 644:Drivers/STM32G0xx_HAL_Driver/Src/stm32g0xx_hal_rcc.c ****   }
 645:Drivers/STM32G0xx_HAL_Driver/Src/stm32g0xx_hal_rcc.c **** #endif /* RCC_HSI48_SUPPORT */
 646:Drivers/STM32G0xx_HAL_Driver/Src/stm32g0xx_hal_rcc.c ****   /*-------------------------------- PLL Configuration -----------------------*/
ARM GAS  /tmp/ccETUiog.s 			page 27


 647:Drivers/STM32G0xx_HAL_Driver/Src/stm32g0xx_hal_rcc.c ****   /* Check the parameters */
 648:Drivers/STM32G0xx_HAL_Driver/Src/stm32g0xx_hal_rcc.c ****   assert_param(IS_RCC_PLL(RCC_OscInitStruct->PLL.PLLState));
 649:Drivers/STM32G0xx_HAL_Driver/Src/stm32g0xx_hal_rcc.c **** 
 650:Drivers/STM32G0xx_HAL_Driver/Src/stm32g0xx_hal_rcc.c ****   if (RCC_OscInitStruct->PLL.PLLState != RCC_PLL_NONE)
 824              		.loc 1 650 0
 825 0358 E369     		ldr	r3, [r4, #28]
 826 035a 002B     		cmp	r3, #0
 827 035c 00D1     		bne	.LCB810
 828 035e 9CE0     		b	.L87	@long jump
 829              	.LCB810:
 651:Drivers/STM32G0xx_HAL_Driver/Src/stm32g0xx_hal_rcc.c ****   {
 652:Drivers/STM32G0xx_HAL_Driver/Src/stm32g0xx_hal_rcc.c ****     /* Check if the PLL is used as system clock or not */
 653:Drivers/STM32G0xx_HAL_Driver/Src/stm32g0xx_hal_rcc.c ****     if (__HAL_RCC_GET_SYSCLK_SOURCE() != RCC_SYSCLKSOURCE_STATUS_PLLCLK)
 830              		.loc 1 653 0
 831 0360 594A     		ldr	r2, .L99+4
 832 0362 9268     		ldr	r2, [r2, #8]
 833 0364 3821     		movs	r1, #56
 834 0366 0A40     		ands	r2, r1
 835 0368 102A     		cmp	r2, #16
 836 036a 56D0     		beq	.L62
 654:Drivers/STM32G0xx_HAL_Driver/Src/stm32g0xx_hal_rcc.c ****     {
 655:Drivers/STM32G0xx_HAL_Driver/Src/stm32g0xx_hal_rcc.c ****       if (RCC_OscInitStruct->PLL.PLLState == RCC_PLL_ON)
 837              		.loc 1 655 0
 838 036c 022B     		cmp	r3, #2
 839 036e 3BD1     		bne	.L63
 656:Drivers/STM32G0xx_HAL_Driver/Src/stm32g0xx_hal_rcc.c ****       {
 657:Drivers/STM32G0xx_HAL_Driver/Src/stm32g0xx_hal_rcc.c ****         /* Check the parameters */
 658:Drivers/STM32G0xx_HAL_Driver/Src/stm32g0xx_hal_rcc.c ****         assert_param(IS_RCC_PLLSOURCE(RCC_OscInitStruct->PLL.PLLSource));
 659:Drivers/STM32G0xx_HAL_Driver/Src/stm32g0xx_hal_rcc.c ****         assert_param(IS_RCC_PLLM_VALUE(RCC_OscInitStruct->PLL.PLLM));
 660:Drivers/STM32G0xx_HAL_Driver/Src/stm32g0xx_hal_rcc.c ****         assert_param(IS_RCC_PLLN_VALUE(RCC_OscInitStruct->PLL.PLLN));
 661:Drivers/STM32G0xx_HAL_Driver/Src/stm32g0xx_hal_rcc.c ****         assert_param(IS_RCC_PLLP_VALUE(RCC_OscInitStruct->PLL.PLLP));
 662:Drivers/STM32G0xx_HAL_Driver/Src/stm32g0xx_hal_rcc.c **** #if defined(RCC_PLLQ_SUPPORT)
 663:Drivers/STM32G0xx_HAL_Driver/Src/stm32g0xx_hal_rcc.c ****         assert_param(IS_RCC_PLLQ_VALUE(RCC_OscInitStruct->PLL.PLLQ));
 664:Drivers/STM32G0xx_HAL_Driver/Src/stm32g0xx_hal_rcc.c **** #endif /* RCC_PLLQ_SUPPORT */
 665:Drivers/STM32G0xx_HAL_Driver/Src/stm32g0xx_hal_rcc.c ****         assert_param(IS_RCC_PLLR_VALUE(RCC_OscInitStruct->PLL.PLLR));
 666:Drivers/STM32G0xx_HAL_Driver/Src/stm32g0xx_hal_rcc.c **** 
 667:Drivers/STM32G0xx_HAL_Driver/Src/stm32g0xx_hal_rcc.c ****         /* Disable the main PLL. */
 668:Drivers/STM32G0xx_HAL_Driver/Src/stm32g0xx_hal_rcc.c ****         __HAL_RCC_PLL_DISABLE();
 840              		.loc 1 668 0
 841 0370 554A     		ldr	r2, .L99+4
 842 0372 1168     		ldr	r1, [r2]
 843 0374 564B     		ldr	r3, .L99+12
 844 0376 0B40     		ands	r3, r1
 845 0378 1360     		str	r3, [r2]
 669:Drivers/STM32G0xx_HAL_Driver/Src/stm32g0xx_hal_rcc.c **** 
 670:Drivers/STM32G0xx_HAL_Driver/Src/stm32g0xx_hal_rcc.c ****         /* Get Start Tick*/
 671:Drivers/STM32G0xx_HAL_Driver/Src/stm32g0xx_hal_rcc.c ****         tickstart = HAL_GetTick();
 846              		.loc 1 671 0
 847 037a FFF7FEFF 		bl	HAL_GetTick
 848              	.LVL79:
 849 037e 0500     		movs	r5, r0
 850              	.LVL80:
 672:Drivers/STM32G0xx_HAL_Driver/Src/stm32g0xx_hal_rcc.c **** 
 673:Drivers/STM32G0xx_HAL_Driver/Src/stm32g0xx_hal_rcc.c ****         /* Wait till PLL is ready */
 674:Drivers/STM32G0xx_HAL_Driver/Src/stm32g0xx_hal_rcc.c ****         while (READ_BIT(RCC->CR, RCC_CR_PLLRDY) != 0U)
 851              		.loc 1 674 0
 852 0380 05E0     		b	.L64
ARM GAS  /tmp/ccETUiog.s 			page 28


 853              	.LVL81:
 854              	.L65:
 675:Drivers/STM32G0xx_HAL_Driver/Src/stm32g0xx_hal_rcc.c ****         {
 676:Drivers/STM32G0xx_HAL_Driver/Src/stm32g0xx_hal_rcc.c ****           if ((HAL_GetTick() - tickstart) > PLL_TIMEOUT_VALUE)
 855              		.loc 1 676 0
 856 0382 FFF7FEFF 		bl	HAL_GetTick
 857              	.LVL82:
 858 0386 401B     		subs	r0, r0, r5
 859 0388 0228     		cmp	r0, #2
 860 038a 00D9     		bls	.LCB837
 861 038c 87E0     		b	.L88	@long jump
 862              	.LCB837:
 863              	.L64:
 674:Drivers/STM32G0xx_HAL_Driver/Src/stm32g0xx_hal_rcc.c ****         {
 864              		.loc 1 674 0
 865 038e 4E4B     		ldr	r3, .L99+4
 866 0390 1B68     		ldr	r3, [r3]
 867 0392 9B01     		lsls	r3, r3, #6
 868 0394 F5D4     		bmi	.L65
 677:Drivers/STM32G0xx_HAL_Driver/Src/stm32g0xx_hal_rcc.c ****           {
 678:Drivers/STM32G0xx_HAL_Driver/Src/stm32g0xx_hal_rcc.c ****             return HAL_TIMEOUT;
 679:Drivers/STM32G0xx_HAL_Driver/Src/stm32g0xx_hal_rcc.c ****           }
 680:Drivers/STM32G0xx_HAL_Driver/Src/stm32g0xx_hal_rcc.c ****         }
 681:Drivers/STM32G0xx_HAL_Driver/Src/stm32g0xx_hal_rcc.c **** 
 682:Drivers/STM32G0xx_HAL_Driver/Src/stm32g0xx_hal_rcc.c ****         /* Configure the main PLL clock source, multiplication and division factors. */
 683:Drivers/STM32G0xx_HAL_Driver/Src/stm32g0xx_hal_rcc.c **** #if defined(RCC_PLLQ_SUPPORT)
 684:Drivers/STM32G0xx_HAL_Driver/Src/stm32g0xx_hal_rcc.c ****         __HAL_RCC_PLL_CONFIG(RCC_OscInitStruct->PLL.PLLSource,
 685:Drivers/STM32G0xx_HAL_Driver/Src/stm32g0xx_hal_rcc.c ****                              RCC_OscInitStruct->PLL.PLLM,
 686:Drivers/STM32G0xx_HAL_Driver/Src/stm32g0xx_hal_rcc.c ****                              RCC_OscInitStruct->PLL.PLLN,
 687:Drivers/STM32G0xx_HAL_Driver/Src/stm32g0xx_hal_rcc.c ****                              RCC_OscInitStruct->PLL.PLLP,
 688:Drivers/STM32G0xx_HAL_Driver/Src/stm32g0xx_hal_rcc.c ****                              RCC_OscInitStruct->PLL.PLLQ,
 689:Drivers/STM32G0xx_HAL_Driver/Src/stm32g0xx_hal_rcc.c ****                              RCC_OscInitStruct->PLL.PLLR);
 690:Drivers/STM32G0xx_HAL_Driver/Src/stm32g0xx_hal_rcc.c **** #else /* !RCC_PLLQ_SUPPORT */
 691:Drivers/STM32G0xx_HAL_Driver/Src/stm32g0xx_hal_rcc.c ****         __HAL_RCC_PLL_CONFIG(RCC_OscInitStruct->PLL.PLLSource,
 869              		.loc 1 691 0
 870 0396 4C4B     		ldr	r3, .L99+4
 871 0398 D868     		ldr	r0, [r3, #12]
 872 039a 4E4A     		ldr	r2, .L99+16
 873 039c 1040     		ands	r0, r2
 874 039e 226A     		ldr	r2, [r4, #32]
 875 03a0 616A     		ldr	r1, [r4, #36]
 876 03a2 0A43     		orrs	r2, r1
 877 03a4 A16A     		ldr	r1, [r4, #40]
 878 03a6 0902     		lsls	r1, r1, #8
 879 03a8 1143     		orrs	r1, r2
 880 03aa E26A     		ldr	r2, [r4, #44]
 881 03ac 0A43     		orrs	r2, r1
 882 03ae 216B     		ldr	r1, [r4, #48]
 883 03b0 0A43     		orrs	r2, r1
 884 03b2 0243     		orrs	r2, r0
 885 03b4 DA60     		str	r2, [r3, #12]
 692:Drivers/STM32G0xx_HAL_Driver/Src/stm32g0xx_hal_rcc.c ****                              RCC_OscInitStruct->PLL.PLLM,
 693:Drivers/STM32G0xx_HAL_Driver/Src/stm32g0xx_hal_rcc.c ****                              RCC_OscInitStruct->PLL.PLLN,
 694:Drivers/STM32G0xx_HAL_Driver/Src/stm32g0xx_hal_rcc.c ****                              RCC_OscInitStruct->PLL.PLLP,
 695:Drivers/STM32G0xx_HAL_Driver/Src/stm32g0xx_hal_rcc.c ****                              RCC_OscInitStruct->PLL.PLLR);
 696:Drivers/STM32G0xx_HAL_Driver/Src/stm32g0xx_hal_rcc.c **** #endif /* RCC_PLLQ_SUPPORT */
 697:Drivers/STM32G0xx_HAL_Driver/Src/stm32g0xx_hal_rcc.c **** 
ARM GAS  /tmp/ccETUiog.s 			page 29


 698:Drivers/STM32G0xx_HAL_Driver/Src/stm32g0xx_hal_rcc.c ****         /* Enable the main PLL. */
 699:Drivers/STM32G0xx_HAL_Driver/Src/stm32g0xx_hal_rcc.c ****         __HAL_RCC_PLL_ENABLE();
 886              		.loc 1 699 0
 887 03b6 1A68     		ldr	r2, [r3]
 888 03b8 8021     		movs	r1, #128
 889 03ba 4904     		lsls	r1, r1, #17
 890 03bc 0A43     		orrs	r2, r1
 891 03be 1A60     		str	r2, [r3]
 700:Drivers/STM32G0xx_HAL_Driver/Src/stm32g0xx_hal_rcc.c **** 
 701:Drivers/STM32G0xx_HAL_Driver/Src/stm32g0xx_hal_rcc.c ****         /* Enable PLLR Clock output. */
 702:Drivers/STM32G0xx_HAL_Driver/Src/stm32g0xx_hal_rcc.c ****         __HAL_RCC_PLLCLKOUT_ENABLE(RCC_PLLRCLK);
 892              		.loc 1 702 0
 893 03c0 DA68     		ldr	r2, [r3, #12]
 894 03c2 8021     		movs	r1, #128
 895 03c4 4905     		lsls	r1, r1, #21
 896 03c6 0A43     		orrs	r2, r1
 897 03c8 DA60     		str	r2, [r3, #12]
 703:Drivers/STM32G0xx_HAL_Driver/Src/stm32g0xx_hal_rcc.c **** 
 704:Drivers/STM32G0xx_HAL_Driver/Src/stm32g0xx_hal_rcc.c ****         /* Get Start Tick*/
 705:Drivers/STM32G0xx_HAL_Driver/Src/stm32g0xx_hal_rcc.c ****         tickstart = HAL_GetTick();
 898              		.loc 1 705 0
 899 03ca FFF7FEFF 		bl	HAL_GetTick
 900              	.LVL83:
 901 03ce 0400     		movs	r4, r0
 902              	.LVL84:
 706:Drivers/STM32G0xx_HAL_Driver/Src/stm32g0xx_hal_rcc.c **** 
 707:Drivers/STM32G0xx_HAL_Driver/Src/stm32g0xx_hal_rcc.c ****         /* Wait till PLL is ready */
 708:Drivers/STM32G0xx_HAL_Driver/Src/stm32g0xx_hal_rcc.c ****         while (READ_BIT(RCC->CR, RCC_CR_PLLRDY) == 0U)
 903              		.loc 1 708 0
 904 03d0 04E0     		b	.L66
 905              	.LVL85:
 906              	.L67:
 709:Drivers/STM32G0xx_HAL_Driver/Src/stm32g0xx_hal_rcc.c ****         {
 710:Drivers/STM32G0xx_HAL_Driver/Src/stm32g0xx_hal_rcc.c ****           if ((HAL_GetTick() - tickstart) > PLL_TIMEOUT_VALUE)
 907              		.loc 1 710 0
 908 03d2 FFF7FEFF 		bl	HAL_GetTick
 909              	.LVL86:
 910 03d6 001B     		subs	r0, r0, r4
 911 03d8 0228     		cmp	r0, #2
 912 03da 62D8     		bhi	.L89
 913              	.L66:
 708:Drivers/STM32G0xx_HAL_Driver/Src/stm32g0xx_hal_rcc.c ****         {
 914              		.loc 1 708 0
 915 03dc 3A4B     		ldr	r3, .L99+4
 916 03de 1B68     		ldr	r3, [r3]
 917 03e0 9B01     		lsls	r3, r3, #6
 918 03e2 F6D5     		bpl	.L67
 711:Drivers/STM32G0xx_HAL_Driver/Src/stm32g0xx_hal_rcc.c ****           {
 712:Drivers/STM32G0xx_HAL_Driver/Src/stm32g0xx_hal_rcc.c ****             return HAL_TIMEOUT;
 713:Drivers/STM32G0xx_HAL_Driver/Src/stm32g0xx_hal_rcc.c ****           }
 714:Drivers/STM32G0xx_HAL_Driver/Src/stm32g0xx_hal_rcc.c ****         }
 715:Drivers/STM32G0xx_HAL_Driver/Src/stm32g0xx_hal_rcc.c ****       }
 716:Drivers/STM32G0xx_HAL_Driver/Src/stm32g0xx_hal_rcc.c ****       else
 717:Drivers/STM32G0xx_HAL_Driver/Src/stm32g0xx_hal_rcc.c ****       {
 718:Drivers/STM32G0xx_HAL_Driver/Src/stm32g0xx_hal_rcc.c ****         /* Disable the main PLL. */
 719:Drivers/STM32G0xx_HAL_Driver/Src/stm32g0xx_hal_rcc.c ****         __HAL_RCC_PLL_DISABLE();
 720:Drivers/STM32G0xx_HAL_Driver/Src/stm32g0xx_hal_rcc.c **** 
ARM GAS  /tmp/ccETUiog.s 			page 30


 721:Drivers/STM32G0xx_HAL_Driver/Src/stm32g0xx_hal_rcc.c ****         /* Get Start Tick*/
 722:Drivers/STM32G0xx_HAL_Driver/Src/stm32g0xx_hal_rcc.c ****         tickstart = HAL_GetTick();
 723:Drivers/STM32G0xx_HAL_Driver/Src/stm32g0xx_hal_rcc.c **** 
 724:Drivers/STM32G0xx_HAL_Driver/Src/stm32g0xx_hal_rcc.c ****         /* Wait till PLL is disabled */
 725:Drivers/STM32G0xx_HAL_Driver/Src/stm32g0xx_hal_rcc.c ****         while (READ_BIT(RCC->CR, RCC_CR_PLLRDY) != 0U)
 726:Drivers/STM32G0xx_HAL_Driver/Src/stm32g0xx_hal_rcc.c ****         {
 727:Drivers/STM32G0xx_HAL_Driver/Src/stm32g0xx_hal_rcc.c ****           if ((HAL_GetTick() - tickstart) > PLL_TIMEOUT_VALUE)
 728:Drivers/STM32G0xx_HAL_Driver/Src/stm32g0xx_hal_rcc.c ****           {
 729:Drivers/STM32G0xx_HAL_Driver/Src/stm32g0xx_hal_rcc.c ****             return HAL_TIMEOUT;
 730:Drivers/STM32G0xx_HAL_Driver/Src/stm32g0xx_hal_rcc.c ****           }
 731:Drivers/STM32G0xx_HAL_Driver/Src/stm32g0xx_hal_rcc.c ****         }
 732:Drivers/STM32G0xx_HAL_Driver/Src/stm32g0xx_hal_rcc.c ****         /* Unselect main PLL clock source and disable main PLL outputs to save power */
 733:Drivers/STM32G0xx_HAL_Driver/Src/stm32g0xx_hal_rcc.c **** #if defined(RCC_PLLQ_SUPPORT)
 734:Drivers/STM32G0xx_HAL_Driver/Src/stm32g0xx_hal_rcc.c ****         RCC->PLLCFGR &= ~(RCC_PLLCFGR_PLLSRC | RCC_PLLCFGR_PLLPEN | RCC_PLLCFGR_PLLQEN | RCC_PLLCFG
 735:Drivers/STM32G0xx_HAL_Driver/Src/stm32g0xx_hal_rcc.c **** #else
 736:Drivers/STM32G0xx_HAL_Driver/Src/stm32g0xx_hal_rcc.c ****         RCC->PLLCFGR &= ~(RCC_PLLCFGR_PLLSRC | RCC_PLLCFGR_PLLPEN | RCC_PLLCFGR_PLLREN);
 737:Drivers/STM32G0xx_HAL_Driver/Src/stm32g0xx_hal_rcc.c **** #endif /* RCC_PLLQ_SUPPORT */
 738:Drivers/STM32G0xx_HAL_Driver/Src/stm32g0xx_hal_rcc.c ****       }
 739:Drivers/STM32G0xx_HAL_Driver/Src/stm32g0xx_hal_rcc.c ****     }
 740:Drivers/STM32G0xx_HAL_Driver/Src/stm32g0xx_hal_rcc.c ****     else
 741:Drivers/STM32G0xx_HAL_Driver/Src/stm32g0xx_hal_rcc.c ****     {
 742:Drivers/STM32G0xx_HAL_Driver/Src/stm32g0xx_hal_rcc.c ****       /* Check if there is a request to disable the PLL used as System clock source */
 743:Drivers/STM32G0xx_HAL_Driver/Src/stm32g0xx_hal_rcc.c ****       if ((RCC_OscInitStruct->PLL.PLLState) == RCC_PLL_OFF)
 744:Drivers/STM32G0xx_HAL_Driver/Src/stm32g0xx_hal_rcc.c ****       {
 745:Drivers/STM32G0xx_HAL_Driver/Src/stm32g0xx_hal_rcc.c ****         return HAL_ERROR;
 746:Drivers/STM32G0xx_HAL_Driver/Src/stm32g0xx_hal_rcc.c ****       }
 747:Drivers/STM32G0xx_HAL_Driver/Src/stm32g0xx_hal_rcc.c ****       else
 748:Drivers/STM32G0xx_HAL_Driver/Src/stm32g0xx_hal_rcc.c ****       {
 749:Drivers/STM32G0xx_HAL_Driver/Src/stm32g0xx_hal_rcc.c ****         /* Do not return HAL_ERROR if request repeats the current configuration */
 750:Drivers/STM32G0xx_HAL_Driver/Src/stm32g0xx_hal_rcc.c ****         temp_pllckcfg = RCC->PLLCFGR;
 751:Drivers/STM32G0xx_HAL_Driver/Src/stm32g0xx_hal_rcc.c ****         if ((READ_BIT(temp_pllckcfg, RCC_PLLCFGR_PLLSRC) != RCC_OscInitStruct->PLL.PLLSource) ||
 752:Drivers/STM32G0xx_HAL_Driver/Src/stm32g0xx_hal_rcc.c ****             (READ_BIT(temp_pllckcfg, RCC_PLLCFGR_PLLM) != RCC_OscInitStruct->PLL.PLLM) ||
 753:Drivers/STM32G0xx_HAL_Driver/Src/stm32g0xx_hal_rcc.c ****             (READ_BIT(temp_pllckcfg, RCC_PLLCFGR_PLLN) != (RCC_OscInitStruct->PLL.PLLN << RCC_PLLCF
 754:Drivers/STM32G0xx_HAL_Driver/Src/stm32g0xx_hal_rcc.c ****             (READ_BIT(temp_pllckcfg, RCC_PLLCFGR_PLLP) != RCC_OscInitStruct->PLL.PLLP) ||
 755:Drivers/STM32G0xx_HAL_Driver/Src/stm32g0xx_hal_rcc.c **** #if defined (RCC_PLLQ_SUPPORT)
 756:Drivers/STM32G0xx_HAL_Driver/Src/stm32g0xx_hal_rcc.c ****             (READ_BIT(temp_pllckcfg, RCC_PLLCFGR_PLLQ) != RCC_OscInitStruct->PLL.PLLQ) ||
 757:Drivers/STM32G0xx_HAL_Driver/Src/stm32g0xx_hal_rcc.c **** #endif /* RCC_PLLQ_SUPPORT */
 758:Drivers/STM32G0xx_HAL_Driver/Src/stm32g0xx_hal_rcc.c ****             (READ_BIT(temp_pllckcfg, RCC_PLLCFGR_PLLR) != RCC_OscInitStruct->PLL.PLLR))
 759:Drivers/STM32G0xx_HAL_Driver/Src/stm32g0xx_hal_rcc.c ****         {
 760:Drivers/STM32G0xx_HAL_Driver/Src/stm32g0xx_hal_rcc.c ****           return HAL_ERROR;
 761:Drivers/STM32G0xx_HAL_Driver/Src/stm32g0xx_hal_rcc.c ****         }
 762:Drivers/STM32G0xx_HAL_Driver/Src/stm32g0xx_hal_rcc.c ****       }
 763:Drivers/STM32G0xx_HAL_Driver/Src/stm32g0xx_hal_rcc.c ****     }
 764:Drivers/STM32G0xx_HAL_Driver/Src/stm32g0xx_hal_rcc.c ****   }
 765:Drivers/STM32G0xx_HAL_Driver/Src/stm32g0xx_hal_rcc.c ****   return HAL_OK;
 919              		.loc 1 765 0
 920 03e4 0020     		movs	r0, #0
 921 03e6 6BE0     		b	.L15
 922              	.LVL87:
 923              	.L63:
 719:Drivers/STM32G0xx_HAL_Driver/Src/stm32g0xx_hal_rcc.c **** 
 924              		.loc 1 719 0
 925 03e8 374A     		ldr	r2, .L99+4
 926 03ea 1168     		ldr	r1, [r2]
 927 03ec 384B     		ldr	r3, .L99+12
 928 03ee 0B40     		ands	r3, r1
 929 03f0 1360     		str	r3, [r2]
ARM GAS  /tmp/ccETUiog.s 			page 31


 722:Drivers/STM32G0xx_HAL_Driver/Src/stm32g0xx_hal_rcc.c **** 
 930              		.loc 1 722 0
 931 03f2 FFF7FEFF 		bl	HAL_GetTick
 932              	.LVL88:
 933 03f6 0400     		movs	r4, r0
 934              	.LVL89:
 725:Drivers/STM32G0xx_HAL_Driver/Src/stm32g0xx_hal_rcc.c ****         {
 935              		.loc 1 725 0
 936 03f8 04E0     		b	.L68
 937              	.LVL90:
 938              	.L69:
 727:Drivers/STM32G0xx_HAL_Driver/Src/stm32g0xx_hal_rcc.c ****           {
 939              		.loc 1 727 0
 940 03fa FFF7FEFF 		bl	HAL_GetTick
 941              	.LVL91:
 942 03fe 001B     		subs	r0, r0, r4
 943 0400 0228     		cmp	r0, #2
 944 0402 50D8     		bhi	.L90
 945              	.L68:
 725:Drivers/STM32G0xx_HAL_Driver/Src/stm32g0xx_hal_rcc.c ****         {
 946              		.loc 1 725 0
 947 0404 304B     		ldr	r3, .L99+4
 948 0406 1B68     		ldr	r3, [r3]
 949 0408 9B01     		lsls	r3, r3, #6
 950 040a F6D4     		bmi	.L69
 736:Drivers/STM32G0xx_HAL_Driver/Src/stm32g0xx_hal_rcc.c **** #endif /* RCC_PLLQ_SUPPORT */
 951              		.loc 1 736 0
 952 040c 2E4A     		ldr	r2, .L99+4
 953 040e D168     		ldr	r1, [r2, #12]
 954 0410 314B     		ldr	r3, .L99+20
 955 0412 0B40     		ands	r3, r1
 956 0414 D360     		str	r3, [r2, #12]
 957              		.loc 1 765 0
 958 0416 0020     		movs	r0, #0
 959 0418 52E0     		b	.L15
 960              	.LVL92:
 961              	.L62:
 743:Drivers/STM32G0xx_HAL_Driver/Src/stm32g0xx_hal_rcc.c ****       {
 962              		.loc 1 743 0
 963 041a 012B     		cmp	r3, #1
 964 041c 45D0     		beq	.L91
 750:Drivers/STM32G0xx_HAL_Driver/Src/stm32g0xx_hal_rcc.c ****         if ((READ_BIT(temp_pllckcfg, RCC_PLLCFGR_PLLSRC) != RCC_OscInitStruct->PLL.PLLSource) ||
 965              		.loc 1 750 0
 966 041e 2A4B     		ldr	r3, .L99+4
 967 0420 DA68     		ldr	r2, [r3, #12]
 968              	.LVL93:
 751:Drivers/STM32G0xx_HAL_Driver/Src/stm32g0xx_hal_rcc.c ****             (READ_BIT(temp_pllckcfg, RCC_PLLCFGR_PLLM) != RCC_OscInitStruct->PLL.PLLM) ||
 969              		.loc 1 751 0
 970 0422 0323     		movs	r3, #3
 971 0424 1340     		ands	r3, r2
 972 0426 216A     		ldr	r1, [r4, #32]
 973 0428 8B42     		cmp	r3, r1
 974 042a 40D1     		bne	.L92
 752:Drivers/STM32G0xx_HAL_Driver/Src/stm32g0xx_hal_rcc.c ****             (READ_BIT(temp_pllckcfg, RCC_PLLCFGR_PLLN) != (RCC_OscInitStruct->PLL.PLLN << RCC_PLLCF
 975              		.loc 1 752 0 discriminator 1
 976 042c 7023     		movs	r3, #112
 977 042e 1340     		ands	r3, r2
ARM GAS  /tmp/ccETUiog.s 			page 32


 751:Drivers/STM32G0xx_HAL_Driver/Src/stm32g0xx_hal_rcc.c ****             (READ_BIT(temp_pllckcfg, RCC_PLLCFGR_PLLM) != RCC_OscInitStruct->PLL.PLLM) ||
 978              		.loc 1 751 0 discriminator 1
 979 0430 616A     		ldr	r1, [r4, #36]
 980 0432 8B42     		cmp	r3, r1
 981 0434 3DD1     		bne	.L93
 753:Drivers/STM32G0xx_HAL_Driver/Src/stm32g0xx_hal_rcc.c ****             (READ_BIT(temp_pllckcfg, RCC_PLLCFGR_PLLP) != RCC_OscInitStruct->PLL.PLLP) ||
 982              		.loc 1 753 0
 983 0436 FE21     		movs	r1, #254
 984 0438 C901     		lsls	r1, r1, #7
 985 043a 1140     		ands	r1, r2
 986 043c A36A     		ldr	r3, [r4, #40]
 987 043e 1B02     		lsls	r3, r3, #8
 752:Drivers/STM32G0xx_HAL_Driver/Src/stm32g0xx_hal_rcc.c ****             (READ_BIT(temp_pllckcfg, RCC_PLLCFGR_PLLN) != (RCC_OscInitStruct->PLL.PLLN << RCC_PLLCF
 988              		.loc 1 752 0
 989 0440 9942     		cmp	r1, r3
 990 0442 38D1     		bne	.L94
 754:Drivers/STM32G0xx_HAL_Driver/Src/stm32g0xx_hal_rcc.c **** #if defined (RCC_PLLQ_SUPPORT)
 991              		.loc 1 754 0
 992 0444 F823     		movs	r3, #248
 993 0446 9B03     		lsls	r3, r3, #14
 994 0448 1340     		ands	r3, r2
 753:Drivers/STM32G0xx_HAL_Driver/Src/stm32g0xx_hal_rcc.c ****             (READ_BIT(temp_pllckcfg, RCC_PLLCFGR_PLLP) != RCC_OscInitStruct->PLL.PLLP) ||
 995              		.loc 1 753 0
 996 044a E16A     		ldr	r1, [r4, #44]
 997 044c 8B42     		cmp	r3, r1
 998 044e 34D1     		bne	.L95
 758:Drivers/STM32G0xx_HAL_Driver/Src/stm32g0xx_hal_rcc.c ****         {
 999              		.loc 1 758 0
 1000 0450 520F     		lsrs	r2, r2, #29
 1001              	.LVL94:
 1002 0452 5207     		lsls	r2, r2, #29
 1003 0454 236B     		ldr	r3, [r4, #48]
 754:Drivers/STM32G0xx_HAL_Driver/Src/stm32g0xx_hal_rcc.c **** #if defined (RCC_PLLQ_SUPPORT)
 1004              		.loc 1 754 0
 1005 0456 9A42     		cmp	r2, r3
 1006 0458 31D0     		beq	.L96
 760:Drivers/STM32G0xx_HAL_Driver/Src/stm32g0xx_hal_rcc.c ****         }
 1007              		.loc 1 760 0
 1008 045a 0120     		movs	r0, #1
 1009 045c 30E0     		b	.L15
 1010              	.LVL95:
 1011              	.L70:
 319:Drivers/STM32G0xx_HAL_Driver/Src/stm32g0xx_hal_rcc.c ****   }
 1012              		.loc 1 319 0
 1013 045e 0120     		movs	r0, #1
 1014              	.LVL96:
 1015 0460 2EE0     		b	.L15
 1016              	.LVL97:
 1017              	.L71:
 340:Drivers/STM32G0xx_HAL_Driver/Src/stm32g0xx_hal_rcc.c ****       }
 1018              		.loc 1 340 0
 1019 0462 0120     		movs	r0, #1
 1020              	.LVL98:
 1021 0464 2CE0     		b	.L15
 1022              	.LVL99:
 1023              	.L72:
 359:Drivers/STM32G0xx_HAL_Driver/Src/stm32g0xx_hal_rcc.c ****           }
ARM GAS  /tmp/ccETUiog.s 			page 33


 1024              		.loc 1 359 0
 1025 0466 0320     		movs	r0, #3
 1026 0468 2AE0     		b	.L15
 1027              	.L73:
 373:Drivers/STM32G0xx_HAL_Driver/Src/stm32g0xx_hal_rcc.c ****           }
 1028              		.loc 1 373 0
 1029 046a 0320     		movs	r0, #3
 1030 046c 28E0     		b	.L15
 1031              	.LVL100:
 1032              	.L74:
 396:Drivers/STM32G0xx_HAL_Driver/Src/stm32g0xx_hal_rcc.c ****       }
 1033              		.loc 1 396 0
 1034 046e 0120     		movs	r0, #1
 1035 0470 26E0     		b	.L15
 1036              	.LVL101:
 1037              	.L75:
 416:Drivers/STM32G0xx_HAL_Driver/Src/stm32g0xx_hal_rcc.c ****         }
 1038              		.loc 1 416 0
 1039 0472 0120     		movs	r0, #1
 1040 0474 24E0     		b	.L15
 1041              	.LVL102:
 1042              	.L76:
 439:Drivers/STM32G0xx_HAL_Driver/Src/stm32g0xx_hal_rcc.c ****           }
 1043              		.loc 1 439 0
 1044 0476 0320     		movs	r0, #3
 1045 0478 22E0     		b	.L15
 1046              	.L77:
 459:Drivers/STM32G0xx_HAL_Driver/Src/stm32g0xx_hal_rcc.c ****           }
 1047              		.loc 1 459 0
 1048 047a 0320     		movs	r0, #3
 1049 047c 20E0     		b	.L15
 1050              	.LVL103:
 1051              	.L78:
 477:Drivers/STM32G0xx_HAL_Driver/Src/stm32g0xx_hal_rcc.c ****       }
 1052              		.loc 1 477 0
 1053 047e 0120     		movs	r0, #1
 1054 0480 1EE0     		b	.L15
 1055              	.LVL104:
 1056              	.L79:
 496:Drivers/STM32G0xx_HAL_Driver/Src/stm32g0xx_hal_rcc.c ****           }
 1057              		.loc 1 496 0
 1058 0482 0320     		movs	r0, #3
 1059 0484 1CE0     		b	.L15
 1060              	.L80:
 513:Drivers/STM32G0xx_HAL_Driver/Src/stm32g0xx_hal_rcc.c ****           }
 1061              		.loc 1 513 0
 1062 0486 0320     		movs	r0, #3
 1063 0488 1AE0     		b	.L15
 1064              	.LVL105:
 1065              	.L81:
 1066              	.LBB6:
 532:Drivers/STM32G0xx_HAL_Driver/Src/stm32g0xx_hal_rcc.c ****       }
 1067              		.loc 1 532 0
 1068 048a 0120     		movs	r0, #1
 1069 048c 18E0     		b	.L15
 1070              	.LVL106:
 1071              	.L84:
ARM GAS  /tmp/ccETUiog.s 			page 34


 557:Drivers/STM32G0xx_HAL_Driver/Src/stm32g0xx_hal_rcc.c ****           }
 1072              		.loc 1 557 0
 1073 048e 0320     		movs	r0, #3
 1074 0490 16E0     		b	.L15
 1075              	.L85:
 576:Drivers/STM32G0xx_HAL_Driver/Src/stm32g0xx_hal_rcc.c ****           }
 1076              		.loc 1 576 0
 1077 0492 0320     		movs	r0, #3
 1078 0494 14E0     		b	.L15
 1079              	.L86:
 590:Drivers/STM32G0xx_HAL_Driver/Src/stm32g0xx_hal_rcc.c ****           }
 1080              		.loc 1 590 0
 1081 0496 0320     		movs	r0, #3
 1082 0498 12E0     		b	.L15
 1083              	.LVL107:
 1084              	.L87:
 1085              	.LBE6:
 1086              		.loc 1 765 0
 1087 049a 0020     		movs	r0, #0
 1088 049c 10E0     		b	.L15
 1089              	.LVL108:
 1090              	.L88:
 678:Drivers/STM32G0xx_HAL_Driver/Src/stm32g0xx_hal_rcc.c ****           }
 1091              		.loc 1 678 0
 1092 049e 0320     		movs	r0, #3
 1093 04a0 0EE0     		b	.L15
 1094              	.LVL109:
 1095              	.L89:
 712:Drivers/STM32G0xx_HAL_Driver/Src/stm32g0xx_hal_rcc.c ****           }
 1096              		.loc 1 712 0
 1097 04a2 0320     		movs	r0, #3
 1098 04a4 0CE0     		b	.L15
 1099              	.L90:
 729:Drivers/STM32G0xx_HAL_Driver/Src/stm32g0xx_hal_rcc.c ****           }
 1100              		.loc 1 729 0
 1101 04a6 0320     		movs	r0, #3
 1102 04a8 0AE0     		b	.L15
 1103              	.LVL110:
 1104              	.L91:
 745:Drivers/STM32G0xx_HAL_Driver/Src/stm32g0xx_hal_rcc.c ****       }
 1105              		.loc 1 745 0
 1106 04aa 0120     		movs	r0, #1
 1107 04ac 08E0     		b	.L15
 1108              	.LVL111:
 1109              	.L92:
 760:Drivers/STM32G0xx_HAL_Driver/Src/stm32g0xx_hal_rcc.c ****         }
 1110              		.loc 1 760 0
 1111 04ae 0120     		movs	r0, #1
 1112 04b0 06E0     		b	.L15
 1113              	.L93:
 1114 04b2 0120     		movs	r0, #1
 1115 04b4 04E0     		b	.L15
 1116              	.L94:
 1117 04b6 0120     		movs	r0, #1
 1118 04b8 02E0     		b	.L15
 1119              	.L95:
 1120 04ba 0120     		movs	r0, #1
ARM GAS  /tmp/ccETUiog.s 			page 35


 1121 04bc 00E0     		b	.L15
 1122              	.LVL112:
 1123              	.L96:
 1124              		.loc 1 765 0
 1125 04be 0020     		movs	r0, #0
 1126              	.LVL113:
 1127              	.L15:
 766:Drivers/STM32G0xx_HAL_Driver/Src/stm32g0xx_hal_rcc.c **** }
 1128              		.loc 1 766 0
 1129 04c0 02B0     		add	sp, sp, #8
 1130              		@ sp needed
 1131 04c2 70BD     		pop	{r4, r5, r6, pc}
 1132              	.L100:
 1133              		.align	2
 1134              	.L99:
 1135 04c4 88130000 		.word	5000
 1136 04c8 00100240 		.word	1073876992
 1137 04cc FFFFFFEF 		.word	-268435457
 1138 04d0 FFFFFFFE 		.word	-16777217
 1139 04d4 8C80C11F 		.word	532775052
 1140 04d8 FCFFFEEF 		.word	-268500996
 1141              		.cfi_endproc
 1142              	.LFE311:
 1144              		.section	.text.HAL_RCC_MCOConfig,"ax",%progbits
 1145              		.align	2
 1146              		.global	HAL_RCC_MCOConfig
 1147              		.code	16
 1148              		.thumb_func
 1150              	HAL_RCC_MCOConfig:
 1151              	.LFB313:
 767:Drivers/STM32G0xx_HAL_Driver/Src/stm32g0xx_hal_rcc.c **** 
 768:Drivers/STM32G0xx_HAL_Driver/Src/stm32g0xx_hal_rcc.c **** /**
 769:Drivers/STM32G0xx_HAL_Driver/Src/stm32g0xx_hal_rcc.c ****   * @brief  Initialize the CPU, AHB and APB buses clocks according to the specified
 770:Drivers/STM32G0xx_HAL_Driver/Src/stm32g0xx_hal_rcc.c ****   *         parameters in the RCC_ClkInitStruct.
 771:Drivers/STM32G0xx_HAL_Driver/Src/stm32g0xx_hal_rcc.c ****   * @param  RCC_ClkInitStruct  pointer to a @ref RCC_ClkInitTypeDef structure that
 772:Drivers/STM32G0xx_HAL_Driver/Src/stm32g0xx_hal_rcc.c ****   *         contains the configuration information for the RCC peripheral.
 773:Drivers/STM32G0xx_HAL_Driver/Src/stm32g0xx_hal_rcc.c ****   * @param  FLatency  FLASH Latency
 774:Drivers/STM32G0xx_HAL_Driver/Src/stm32g0xx_hal_rcc.c ****   *          This parameter can be one of the following values:
 775:Drivers/STM32G0xx_HAL_Driver/Src/stm32g0xx_hal_rcc.c ****   *            @arg FLASH_LATENCY_0   FLASH 0 Latency cycle
 776:Drivers/STM32G0xx_HAL_Driver/Src/stm32g0xx_hal_rcc.c ****   *            @arg FLASH_LATENCY_1   FLASH 1 Latency cycle
 777:Drivers/STM32G0xx_HAL_Driver/Src/stm32g0xx_hal_rcc.c ****   *
 778:Drivers/STM32G0xx_HAL_Driver/Src/stm32g0xx_hal_rcc.c ****   * @note   The SystemCoreClock CMSIS variable is used to store System Clock Frequency
 779:Drivers/STM32G0xx_HAL_Driver/Src/stm32g0xx_hal_rcc.c ****   *         and updated by @ref HAL_RCC_GetHCLKFreq() function called within this function
 780:Drivers/STM32G0xx_HAL_Driver/Src/stm32g0xx_hal_rcc.c ****   *
 781:Drivers/STM32G0xx_HAL_Driver/Src/stm32g0xx_hal_rcc.c ****   * @note   The HSI is used by default as system clock source after
 782:Drivers/STM32G0xx_HAL_Driver/Src/stm32g0xx_hal_rcc.c ****   *         startup from Reset, wake-up from STANDBY mode. After restart from Reset,
 783:Drivers/STM32G0xx_HAL_Driver/Src/stm32g0xx_hal_rcc.c ****   *         the HSI frequency is set to 8 Mhz, then it reaches its default value 16 MHz.
 784:Drivers/STM32G0xx_HAL_Driver/Src/stm32g0xx_hal_rcc.c ****   *
 785:Drivers/STM32G0xx_HAL_Driver/Src/stm32g0xx_hal_rcc.c ****   * @note   The HSI can be selected as system clock source after
 786:Drivers/STM32G0xx_HAL_Driver/Src/stm32g0xx_hal_rcc.c ****   *         from STOP modes or in case of failure of the HSE used directly or indirectly
 787:Drivers/STM32G0xx_HAL_Driver/Src/stm32g0xx_hal_rcc.c ****   *         as system clock (if the Clock Security System CSS is enabled).
 788:Drivers/STM32G0xx_HAL_Driver/Src/stm32g0xx_hal_rcc.c ****   *
 789:Drivers/STM32G0xx_HAL_Driver/Src/stm32g0xx_hal_rcc.c ****   * @note   The LSI can be selected as system clock source after
 790:Drivers/STM32G0xx_HAL_Driver/Src/stm32g0xx_hal_rcc.c ****   *         in case of failure of the LSE used directly or indirectly
 791:Drivers/STM32G0xx_HAL_Driver/Src/stm32g0xx_hal_rcc.c ****   *         as system clock (if the Clock Security System LSECSS is enabled).
 792:Drivers/STM32G0xx_HAL_Driver/Src/stm32g0xx_hal_rcc.c ****   *
 793:Drivers/STM32G0xx_HAL_Driver/Src/stm32g0xx_hal_rcc.c ****   * @note   A switch from one clock source to another occurs only if the target
ARM GAS  /tmp/ccETUiog.s 			page 36


 794:Drivers/STM32G0xx_HAL_Driver/Src/stm32g0xx_hal_rcc.c ****   *         clock source is ready (clock stable after startup delay or PLL locked).
 795:Drivers/STM32G0xx_HAL_Driver/Src/stm32g0xx_hal_rcc.c ****   *         If a clock source which is not yet ready is selected, the switch will
 796:Drivers/STM32G0xx_HAL_Driver/Src/stm32g0xx_hal_rcc.c ****   *         occur when the clock source is ready.
 797:Drivers/STM32G0xx_HAL_Driver/Src/stm32g0xx_hal_rcc.c ****   *
 798:Drivers/STM32G0xx_HAL_Driver/Src/stm32g0xx_hal_rcc.c ****   * @note   You can use @ref HAL_RCC_GetClockConfig() function to know which clock is
 799:Drivers/STM32G0xx_HAL_Driver/Src/stm32g0xx_hal_rcc.c ****   *         currently used as system clock source.
 800:Drivers/STM32G0xx_HAL_Driver/Src/stm32g0xx_hal_rcc.c ****   *
 801:Drivers/STM32G0xx_HAL_Driver/Src/stm32g0xx_hal_rcc.c ****   * @note   Depending on the device voltage range, the software has to set correctly
 802:Drivers/STM32G0xx_HAL_Driver/Src/stm32g0xx_hal_rcc.c ****   *         HPRE[3:0] bits to ensure that HCLK not exceed the maximum allowed frequency
 803:Drivers/STM32G0xx_HAL_Driver/Src/stm32g0xx_hal_rcc.c ****   *         (for more details refer to section above "Initialization/de-initialization functions")
 804:Drivers/STM32G0xx_HAL_Driver/Src/stm32g0xx_hal_rcc.c ****   * @retval None
 805:Drivers/STM32G0xx_HAL_Driver/Src/stm32g0xx_hal_rcc.c ****   */
 806:Drivers/STM32G0xx_HAL_Driver/Src/stm32g0xx_hal_rcc.c **** HAL_StatusTypeDef HAL_RCC_ClockConfig(RCC_ClkInitTypeDef  *RCC_ClkInitStruct, uint32_t FLatency)
 807:Drivers/STM32G0xx_HAL_Driver/Src/stm32g0xx_hal_rcc.c **** {
 808:Drivers/STM32G0xx_HAL_Driver/Src/stm32g0xx_hal_rcc.c ****   uint32_t tickstart;
 809:Drivers/STM32G0xx_HAL_Driver/Src/stm32g0xx_hal_rcc.c **** 
 810:Drivers/STM32G0xx_HAL_Driver/Src/stm32g0xx_hal_rcc.c ****   /* Check Null pointer */
 811:Drivers/STM32G0xx_HAL_Driver/Src/stm32g0xx_hal_rcc.c ****   if (RCC_ClkInitStruct == NULL)
 812:Drivers/STM32G0xx_HAL_Driver/Src/stm32g0xx_hal_rcc.c ****   {
 813:Drivers/STM32G0xx_HAL_Driver/Src/stm32g0xx_hal_rcc.c ****     return HAL_ERROR;
 814:Drivers/STM32G0xx_HAL_Driver/Src/stm32g0xx_hal_rcc.c ****   }
 815:Drivers/STM32G0xx_HAL_Driver/Src/stm32g0xx_hal_rcc.c **** 
 816:Drivers/STM32G0xx_HAL_Driver/Src/stm32g0xx_hal_rcc.c ****   /* Check the parameters */
 817:Drivers/STM32G0xx_HAL_Driver/Src/stm32g0xx_hal_rcc.c ****   assert_param(IS_RCC_CLOCKTYPE(RCC_ClkInitStruct->ClockType));
 818:Drivers/STM32G0xx_HAL_Driver/Src/stm32g0xx_hal_rcc.c ****   assert_param(IS_FLASH_LATENCY(FLatency));
 819:Drivers/STM32G0xx_HAL_Driver/Src/stm32g0xx_hal_rcc.c **** 
 820:Drivers/STM32G0xx_HAL_Driver/Src/stm32g0xx_hal_rcc.c ****   /* To correctly read data from FLASH memory, the number of wait states (LATENCY)
 821:Drivers/STM32G0xx_HAL_Driver/Src/stm32g0xx_hal_rcc.c ****     must be correctly programmed according to the frequency of the FLASH clock
 822:Drivers/STM32G0xx_HAL_Driver/Src/stm32g0xx_hal_rcc.c ****     (HCLK) and the supply voltage of the device. */
 823:Drivers/STM32G0xx_HAL_Driver/Src/stm32g0xx_hal_rcc.c **** 
 824:Drivers/STM32G0xx_HAL_Driver/Src/stm32g0xx_hal_rcc.c ****   /* Increasing the number of wait states because of higher CPU frequency */
 825:Drivers/STM32G0xx_HAL_Driver/Src/stm32g0xx_hal_rcc.c ****   if (FLatency > __HAL_FLASH_GET_LATENCY())
 826:Drivers/STM32G0xx_HAL_Driver/Src/stm32g0xx_hal_rcc.c ****   {
 827:Drivers/STM32G0xx_HAL_Driver/Src/stm32g0xx_hal_rcc.c ****     /* Program the new number of wait states to the LATENCY bits in the FLASH_ACR register */
 828:Drivers/STM32G0xx_HAL_Driver/Src/stm32g0xx_hal_rcc.c ****     __HAL_FLASH_SET_LATENCY(FLatency);
 829:Drivers/STM32G0xx_HAL_Driver/Src/stm32g0xx_hal_rcc.c **** 
 830:Drivers/STM32G0xx_HAL_Driver/Src/stm32g0xx_hal_rcc.c ****     /* Check that the new number of wait states is taken into account to access the Flash
 831:Drivers/STM32G0xx_HAL_Driver/Src/stm32g0xx_hal_rcc.c ****     memory by polling the FLASH_ACR register */
 832:Drivers/STM32G0xx_HAL_Driver/Src/stm32g0xx_hal_rcc.c ****     tickstart = HAL_GetTick();
 833:Drivers/STM32G0xx_HAL_Driver/Src/stm32g0xx_hal_rcc.c **** 
 834:Drivers/STM32G0xx_HAL_Driver/Src/stm32g0xx_hal_rcc.c ****     while ((FLASH->ACR & FLASH_ACR_LATENCY) != FLatency)
 835:Drivers/STM32G0xx_HAL_Driver/Src/stm32g0xx_hal_rcc.c ****     {
 836:Drivers/STM32G0xx_HAL_Driver/Src/stm32g0xx_hal_rcc.c ****       if ((HAL_GetTick() - tickstart) > CLOCKSWITCH_TIMEOUT_VALUE)
 837:Drivers/STM32G0xx_HAL_Driver/Src/stm32g0xx_hal_rcc.c ****       {
 838:Drivers/STM32G0xx_HAL_Driver/Src/stm32g0xx_hal_rcc.c ****         return HAL_TIMEOUT;
 839:Drivers/STM32G0xx_HAL_Driver/Src/stm32g0xx_hal_rcc.c ****       }
 840:Drivers/STM32G0xx_HAL_Driver/Src/stm32g0xx_hal_rcc.c ****     }
 841:Drivers/STM32G0xx_HAL_Driver/Src/stm32g0xx_hal_rcc.c ****   }
 842:Drivers/STM32G0xx_HAL_Driver/Src/stm32g0xx_hal_rcc.c **** 
 843:Drivers/STM32G0xx_HAL_Driver/Src/stm32g0xx_hal_rcc.c ****   /*-------------------------- HCLK Configuration --------------------------*/
 844:Drivers/STM32G0xx_HAL_Driver/Src/stm32g0xx_hal_rcc.c ****   if (((RCC_ClkInitStruct->ClockType) & RCC_CLOCKTYPE_HCLK) == RCC_CLOCKTYPE_HCLK)
 845:Drivers/STM32G0xx_HAL_Driver/Src/stm32g0xx_hal_rcc.c ****   {
 846:Drivers/STM32G0xx_HAL_Driver/Src/stm32g0xx_hal_rcc.c ****     /* Set the highest APB divider in order to ensure that we do not go through
 847:Drivers/STM32G0xx_HAL_Driver/Src/stm32g0xx_hal_rcc.c ****        a non-spec phase whatever we decrease or increase HCLK. */
 848:Drivers/STM32G0xx_HAL_Driver/Src/stm32g0xx_hal_rcc.c ****     if (((RCC_ClkInitStruct->ClockType) & RCC_CLOCKTYPE_PCLK1) == RCC_CLOCKTYPE_PCLK1)
 849:Drivers/STM32G0xx_HAL_Driver/Src/stm32g0xx_hal_rcc.c ****     {
 850:Drivers/STM32G0xx_HAL_Driver/Src/stm32g0xx_hal_rcc.c ****       MODIFY_REG(RCC->CFGR, RCC_CFGR_PPRE, RCC_HCLK_DIV16);
ARM GAS  /tmp/ccETUiog.s 			page 37


 851:Drivers/STM32G0xx_HAL_Driver/Src/stm32g0xx_hal_rcc.c ****     }
 852:Drivers/STM32G0xx_HAL_Driver/Src/stm32g0xx_hal_rcc.c **** 
 853:Drivers/STM32G0xx_HAL_Driver/Src/stm32g0xx_hal_rcc.c ****     /* Set the new HCLK clock divider */
 854:Drivers/STM32G0xx_HAL_Driver/Src/stm32g0xx_hal_rcc.c ****     assert_param(IS_RCC_HCLK(RCC_ClkInitStruct->AHBCLKDivider));
 855:Drivers/STM32G0xx_HAL_Driver/Src/stm32g0xx_hal_rcc.c ****     MODIFY_REG(RCC->CFGR, RCC_CFGR_HPRE, RCC_ClkInitStruct->AHBCLKDivider);
 856:Drivers/STM32G0xx_HAL_Driver/Src/stm32g0xx_hal_rcc.c ****   }
 857:Drivers/STM32G0xx_HAL_Driver/Src/stm32g0xx_hal_rcc.c **** 
 858:Drivers/STM32G0xx_HAL_Driver/Src/stm32g0xx_hal_rcc.c ****   /*------------------------- SYSCLK Configuration ---------------------------*/
 859:Drivers/STM32G0xx_HAL_Driver/Src/stm32g0xx_hal_rcc.c ****   if (((RCC_ClkInitStruct->ClockType) & RCC_CLOCKTYPE_SYSCLK) == RCC_CLOCKTYPE_SYSCLK)
 860:Drivers/STM32G0xx_HAL_Driver/Src/stm32g0xx_hal_rcc.c ****   {
 861:Drivers/STM32G0xx_HAL_Driver/Src/stm32g0xx_hal_rcc.c ****     assert_param(IS_RCC_SYSCLKSOURCE(RCC_ClkInitStruct->SYSCLKSource));
 862:Drivers/STM32G0xx_HAL_Driver/Src/stm32g0xx_hal_rcc.c **** 
 863:Drivers/STM32G0xx_HAL_Driver/Src/stm32g0xx_hal_rcc.c ****     /* HSE is selected as System Clock Source */
 864:Drivers/STM32G0xx_HAL_Driver/Src/stm32g0xx_hal_rcc.c ****     if (RCC_ClkInitStruct->SYSCLKSource == RCC_SYSCLKSOURCE_HSE)
 865:Drivers/STM32G0xx_HAL_Driver/Src/stm32g0xx_hal_rcc.c ****     {
 866:Drivers/STM32G0xx_HAL_Driver/Src/stm32g0xx_hal_rcc.c ****       /* Check the HSE ready flag */
 867:Drivers/STM32G0xx_HAL_Driver/Src/stm32g0xx_hal_rcc.c ****       if (READ_BIT(RCC->CR, RCC_CR_HSERDY) == 0U)
 868:Drivers/STM32G0xx_HAL_Driver/Src/stm32g0xx_hal_rcc.c ****       {
 869:Drivers/STM32G0xx_HAL_Driver/Src/stm32g0xx_hal_rcc.c ****         return HAL_ERROR;
 870:Drivers/STM32G0xx_HAL_Driver/Src/stm32g0xx_hal_rcc.c ****       }
 871:Drivers/STM32G0xx_HAL_Driver/Src/stm32g0xx_hal_rcc.c ****     }
 872:Drivers/STM32G0xx_HAL_Driver/Src/stm32g0xx_hal_rcc.c ****     /* PLL is selected as System Clock Source */
 873:Drivers/STM32G0xx_HAL_Driver/Src/stm32g0xx_hal_rcc.c ****     else if (RCC_ClkInitStruct->SYSCLKSource == RCC_SYSCLKSOURCE_PLLCLK)
 874:Drivers/STM32G0xx_HAL_Driver/Src/stm32g0xx_hal_rcc.c ****     {
 875:Drivers/STM32G0xx_HAL_Driver/Src/stm32g0xx_hal_rcc.c ****       /* Check the PLL ready flag */
 876:Drivers/STM32G0xx_HAL_Driver/Src/stm32g0xx_hal_rcc.c ****       if (READ_BIT(RCC->CR, RCC_CR_PLLRDY) == 0U)
 877:Drivers/STM32G0xx_HAL_Driver/Src/stm32g0xx_hal_rcc.c ****       {
 878:Drivers/STM32G0xx_HAL_Driver/Src/stm32g0xx_hal_rcc.c ****         return HAL_ERROR;
 879:Drivers/STM32G0xx_HAL_Driver/Src/stm32g0xx_hal_rcc.c ****       }
 880:Drivers/STM32G0xx_HAL_Driver/Src/stm32g0xx_hal_rcc.c ****     }
 881:Drivers/STM32G0xx_HAL_Driver/Src/stm32g0xx_hal_rcc.c ****     /* HSI is selected as System Clock Source */
 882:Drivers/STM32G0xx_HAL_Driver/Src/stm32g0xx_hal_rcc.c ****     else if (RCC_ClkInitStruct->SYSCLKSource == RCC_SYSCLKSOURCE_HSI)
 883:Drivers/STM32G0xx_HAL_Driver/Src/stm32g0xx_hal_rcc.c ****     {
 884:Drivers/STM32G0xx_HAL_Driver/Src/stm32g0xx_hal_rcc.c ****       /* Check the HSI ready flag */
 885:Drivers/STM32G0xx_HAL_Driver/Src/stm32g0xx_hal_rcc.c ****       if (READ_BIT(RCC->CR, RCC_CR_HSIRDY) == 0U)
 886:Drivers/STM32G0xx_HAL_Driver/Src/stm32g0xx_hal_rcc.c ****       {
 887:Drivers/STM32G0xx_HAL_Driver/Src/stm32g0xx_hal_rcc.c ****         return HAL_ERROR;
 888:Drivers/STM32G0xx_HAL_Driver/Src/stm32g0xx_hal_rcc.c ****       }
 889:Drivers/STM32G0xx_HAL_Driver/Src/stm32g0xx_hal_rcc.c ****     }
 890:Drivers/STM32G0xx_HAL_Driver/Src/stm32g0xx_hal_rcc.c ****     /* LSI is selected as System Clock Source */
 891:Drivers/STM32G0xx_HAL_Driver/Src/stm32g0xx_hal_rcc.c ****     else if (RCC_ClkInitStruct->SYSCLKSource == RCC_SYSCLKSOURCE_LSI)
 892:Drivers/STM32G0xx_HAL_Driver/Src/stm32g0xx_hal_rcc.c ****     {
 893:Drivers/STM32G0xx_HAL_Driver/Src/stm32g0xx_hal_rcc.c ****       /* Check the LSI ready flag */
 894:Drivers/STM32G0xx_HAL_Driver/Src/stm32g0xx_hal_rcc.c ****       if (READ_BIT(RCC->CSR, RCC_CSR_LSIRDY) == 0U)
 895:Drivers/STM32G0xx_HAL_Driver/Src/stm32g0xx_hal_rcc.c ****       {
 896:Drivers/STM32G0xx_HAL_Driver/Src/stm32g0xx_hal_rcc.c ****         return HAL_ERROR;
 897:Drivers/STM32G0xx_HAL_Driver/Src/stm32g0xx_hal_rcc.c ****       }
 898:Drivers/STM32G0xx_HAL_Driver/Src/stm32g0xx_hal_rcc.c ****     }
 899:Drivers/STM32G0xx_HAL_Driver/Src/stm32g0xx_hal_rcc.c ****     /* LSE is selected as System Clock Source */
 900:Drivers/STM32G0xx_HAL_Driver/Src/stm32g0xx_hal_rcc.c ****     else
 901:Drivers/STM32G0xx_HAL_Driver/Src/stm32g0xx_hal_rcc.c ****     {
 902:Drivers/STM32G0xx_HAL_Driver/Src/stm32g0xx_hal_rcc.c ****       /* Check the LSE ready flag */
 903:Drivers/STM32G0xx_HAL_Driver/Src/stm32g0xx_hal_rcc.c ****       if (READ_BIT(RCC->BDCR, RCC_BDCR_LSERDY) == 0U)
 904:Drivers/STM32G0xx_HAL_Driver/Src/stm32g0xx_hal_rcc.c ****       {
 905:Drivers/STM32G0xx_HAL_Driver/Src/stm32g0xx_hal_rcc.c ****         return HAL_ERROR;
 906:Drivers/STM32G0xx_HAL_Driver/Src/stm32g0xx_hal_rcc.c ****       }
 907:Drivers/STM32G0xx_HAL_Driver/Src/stm32g0xx_hal_rcc.c ****     }
ARM GAS  /tmp/ccETUiog.s 			page 38


 908:Drivers/STM32G0xx_HAL_Driver/Src/stm32g0xx_hal_rcc.c ****     MODIFY_REG(RCC->CFGR, RCC_CFGR_SW, RCC_ClkInitStruct->SYSCLKSource);
 909:Drivers/STM32G0xx_HAL_Driver/Src/stm32g0xx_hal_rcc.c **** 
 910:Drivers/STM32G0xx_HAL_Driver/Src/stm32g0xx_hal_rcc.c ****     /* Get Start Tick*/
 911:Drivers/STM32G0xx_HAL_Driver/Src/stm32g0xx_hal_rcc.c ****     tickstart = HAL_GetTick();
 912:Drivers/STM32G0xx_HAL_Driver/Src/stm32g0xx_hal_rcc.c **** 
 913:Drivers/STM32G0xx_HAL_Driver/Src/stm32g0xx_hal_rcc.c ****     while (__HAL_RCC_GET_SYSCLK_SOURCE() != (RCC_ClkInitStruct->SYSCLKSource << RCC_CFGR_SWS_Pos))
 914:Drivers/STM32G0xx_HAL_Driver/Src/stm32g0xx_hal_rcc.c ****     {
 915:Drivers/STM32G0xx_HAL_Driver/Src/stm32g0xx_hal_rcc.c ****       if ((HAL_GetTick() - tickstart) > CLOCKSWITCH_TIMEOUT_VALUE)
 916:Drivers/STM32G0xx_HAL_Driver/Src/stm32g0xx_hal_rcc.c ****       {
 917:Drivers/STM32G0xx_HAL_Driver/Src/stm32g0xx_hal_rcc.c ****         return HAL_TIMEOUT;
 918:Drivers/STM32G0xx_HAL_Driver/Src/stm32g0xx_hal_rcc.c ****       }
 919:Drivers/STM32G0xx_HAL_Driver/Src/stm32g0xx_hal_rcc.c ****     }
 920:Drivers/STM32G0xx_HAL_Driver/Src/stm32g0xx_hal_rcc.c ****   }
 921:Drivers/STM32G0xx_HAL_Driver/Src/stm32g0xx_hal_rcc.c **** 
 922:Drivers/STM32G0xx_HAL_Driver/Src/stm32g0xx_hal_rcc.c ****   /* Decreasing the number of wait states because of lower CPU frequency */
 923:Drivers/STM32G0xx_HAL_Driver/Src/stm32g0xx_hal_rcc.c ****   if (FLatency < __HAL_FLASH_GET_LATENCY())
 924:Drivers/STM32G0xx_HAL_Driver/Src/stm32g0xx_hal_rcc.c ****   {
 925:Drivers/STM32G0xx_HAL_Driver/Src/stm32g0xx_hal_rcc.c ****     /* Program the new number of wait states to the LATENCY bits in the FLASH_ACR register */
 926:Drivers/STM32G0xx_HAL_Driver/Src/stm32g0xx_hal_rcc.c ****     __HAL_FLASH_SET_LATENCY(FLatency);
 927:Drivers/STM32G0xx_HAL_Driver/Src/stm32g0xx_hal_rcc.c **** 
 928:Drivers/STM32G0xx_HAL_Driver/Src/stm32g0xx_hal_rcc.c ****     /* Check that the new number of wait states is taken into account to access the Flash
 929:Drivers/STM32G0xx_HAL_Driver/Src/stm32g0xx_hal_rcc.c ****     memory by polling the FLASH_ACR register */
 930:Drivers/STM32G0xx_HAL_Driver/Src/stm32g0xx_hal_rcc.c ****     tickstart = HAL_GetTick();
 931:Drivers/STM32G0xx_HAL_Driver/Src/stm32g0xx_hal_rcc.c **** 
 932:Drivers/STM32G0xx_HAL_Driver/Src/stm32g0xx_hal_rcc.c ****     while ((FLASH->ACR & FLASH_ACR_LATENCY) != FLatency)
 933:Drivers/STM32G0xx_HAL_Driver/Src/stm32g0xx_hal_rcc.c ****     {
 934:Drivers/STM32G0xx_HAL_Driver/Src/stm32g0xx_hal_rcc.c ****       if ((HAL_GetTick() - tickstart) > CLOCKSWITCH_TIMEOUT_VALUE)
 935:Drivers/STM32G0xx_HAL_Driver/Src/stm32g0xx_hal_rcc.c ****       {
 936:Drivers/STM32G0xx_HAL_Driver/Src/stm32g0xx_hal_rcc.c ****         return HAL_TIMEOUT;
 937:Drivers/STM32G0xx_HAL_Driver/Src/stm32g0xx_hal_rcc.c ****       }
 938:Drivers/STM32G0xx_HAL_Driver/Src/stm32g0xx_hal_rcc.c ****     }
 939:Drivers/STM32G0xx_HAL_Driver/Src/stm32g0xx_hal_rcc.c ****   }
 940:Drivers/STM32G0xx_HAL_Driver/Src/stm32g0xx_hal_rcc.c **** 
 941:Drivers/STM32G0xx_HAL_Driver/Src/stm32g0xx_hal_rcc.c ****   /*-------------------------- PCLK1 Configuration ---------------------------*/
 942:Drivers/STM32G0xx_HAL_Driver/Src/stm32g0xx_hal_rcc.c ****   if (((RCC_ClkInitStruct->ClockType) & RCC_CLOCKTYPE_PCLK1) == RCC_CLOCKTYPE_PCLK1)
 943:Drivers/STM32G0xx_HAL_Driver/Src/stm32g0xx_hal_rcc.c ****   {
 944:Drivers/STM32G0xx_HAL_Driver/Src/stm32g0xx_hal_rcc.c ****     assert_param(IS_RCC_PCLK(RCC_ClkInitStruct->APB1CLKDivider));
 945:Drivers/STM32G0xx_HAL_Driver/Src/stm32g0xx_hal_rcc.c ****     MODIFY_REG(RCC->CFGR, RCC_CFGR_PPRE, RCC_ClkInitStruct->APB1CLKDivider);
 946:Drivers/STM32G0xx_HAL_Driver/Src/stm32g0xx_hal_rcc.c ****   }
 947:Drivers/STM32G0xx_HAL_Driver/Src/stm32g0xx_hal_rcc.c **** 
 948:Drivers/STM32G0xx_HAL_Driver/Src/stm32g0xx_hal_rcc.c ****   /* Update the SystemCoreClock global variable */
 949:Drivers/STM32G0xx_HAL_Driver/Src/stm32g0xx_hal_rcc.c ****   SystemCoreClock = (HAL_RCC_GetSysClockFreq() >> ((AHBPrescTable[(RCC->CFGR & RCC_CFGR_HPRE) >> RC
 950:Drivers/STM32G0xx_HAL_Driver/Src/stm32g0xx_hal_rcc.c **** 
 951:Drivers/STM32G0xx_HAL_Driver/Src/stm32g0xx_hal_rcc.c ****   /* Configure the source of time base considering new system clocks settings*/
 952:Drivers/STM32G0xx_HAL_Driver/Src/stm32g0xx_hal_rcc.c ****   return HAL_InitTick(uwTickPrio);
 953:Drivers/STM32G0xx_HAL_Driver/Src/stm32g0xx_hal_rcc.c **** }
 954:Drivers/STM32G0xx_HAL_Driver/Src/stm32g0xx_hal_rcc.c **** 
 955:Drivers/STM32G0xx_HAL_Driver/Src/stm32g0xx_hal_rcc.c **** /**
 956:Drivers/STM32G0xx_HAL_Driver/Src/stm32g0xx_hal_rcc.c ****   * @}
 957:Drivers/STM32G0xx_HAL_Driver/Src/stm32g0xx_hal_rcc.c ****   */
 958:Drivers/STM32G0xx_HAL_Driver/Src/stm32g0xx_hal_rcc.c **** 
 959:Drivers/STM32G0xx_HAL_Driver/Src/stm32g0xx_hal_rcc.c **** /** @defgroup RCC_Exported_Functions_Group2 Peripheral Control functions
 960:Drivers/STM32G0xx_HAL_Driver/Src/stm32g0xx_hal_rcc.c ****   *  @brief   RCC clocks control functions
 961:Drivers/STM32G0xx_HAL_Driver/Src/stm32g0xx_hal_rcc.c ****   *
 962:Drivers/STM32G0xx_HAL_Driver/Src/stm32g0xx_hal_rcc.c **** @verbatim
 963:Drivers/STM32G0xx_HAL_Driver/Src/stm32g0xx_hal_rcc.c ****  ===============================================================================
 964:Drivers/STM32G0xx_HAL_Driver/Src/stm32g0xx_hal_rcc.c ****                       ##### Peripheral Control functions #####
ARM GAS  /tmp/ccETUiog.s 			page 39


 965:Drivers/STM32G0xx_HAL_Driver/Src/stm32g0xx_hal_rcc.c ****  ===============================================================================
 966:Drivers/STM32G0xx_HAL_Driver/Src/stm32g0xx_hal_rcc.c ****     [..]
 967:Drivers/STM32G0xx_HAL_Driver/Src/stm32g0xx_hal_rcc.c ****     This subsection provides a set of functions allowing to:
 968:Drivers/STM32G0xx_HAL_Driver/Src/stm32g0xx_hal_rcc.c **** 
 969:Drivers/STM32G0xx_HAL_Driver/Src/stm32g0xx_hal_rcc.c ****     (+) Output clock to MCO pin.
 970:Drivers/STM32G0xx_HAL_Driver/Src/stm32g0xx_hal_rcc.c ****     (+) Retrieve current clock frequencies.
 971:Drivers/STM32G0xx_HAL_Driver/Src/stm32g0xx_hal_rcc.c ****     (+) Enable the Clock Security System.
 972:Drivers/STM32G0xx_HAL_Driver/Src/stm32g0xx_hal_rcc.c **** 
 973:Drivers/STM32G0xx_HAL_Driver/Src/stm32g0xx_hal_rcc.c **** @endverbatim
 974:Drivers/STM32G0xx_HAL_Driver/Src/stm32g0xx_hal_rcc.c ****   * @{
 975:Drivers/STM32G0xx_HAL_Driver/Src/stm32g0xx_hal_rcc.c ****   */
 976:Drivers/STM32G0xx_HAL_Driver/Src/stm32g0xx_hal_rcc.c **** 
 977:Drivers/STM32G0xx_HAL_Driver/Src/stm32g0xx_hal_rcc.c **** /**
 978:Drivers/STM32G0xx_HAL_Driver/Src/stm32g0xx_hal_rcc.c ****   * @brief  Select the clock source to output on MCO1 pin(PA8) or MC02 pin (PA10)(*).
 979:Drivers/STM32G0xx_HAL_Driver/Src/stm32g0xx_hal_rcc.c ****   * @note   PA8, PA10(*) should be configured in alternate function mode.
 980:Drivers/STM32G0xx_HAL_Driver/Src/stm32g0xx_hal_rcc.c ****   * @param  RCC_MCOx  specifies the output direction for the clock source.
 981:Drivers/STM32G0xx_HAL_Driver/Src/stm32g0xx_hal_rcc.c ****   *          For STM32G0xx family this parameter can have only one value:
 982:Drivers/STM32G0xx_HAL_Driver/Src/stm32g0xx_hal_rcc.c ****   *            @arg @ref RCC_MCO1  Clock source to output on MCO1 pin(PA8).
 983:Drivers/STM32G0xx_HAL_Driver/Src/stm32g0xx_hal_rcc.c ****   *            @arg @ref RCC_MCO2  Clock source to output on MCO2 pin(PA10)(*).
 984:Drivers/STM32G0xx_HAL_Driver/Src/stm32g0xx_hal_rcc.c ****   * @param  RCC_MCOSource  specifies the clock source to output.
 985:Drivers/STM32G0xx_HAL_Driver/Src/stm32g0xx_hal_rcc.c ****   *          This parameter can be one of the following values:
 986:Drivers/STM32G0xx_HAL_Driver/Src/stm32g0xx_hal_rcc.c ****   *            @arg @ref RCC_MCO1SOURCE_NOCLOCK  MCO output disabled, no clock on MCO
 987:Drivers/STM32G0xx_HAL_Driver/Src/stm32g0xx_hal_rcc.c ****   *            @arg @ref RCC_MCO1SOURCE_SYSCLK   system  clock selected as MCO source
 988:Drivers/STM32G0xx_HAL_Driver/Src/stm32g0xx_hal_rcc.c ****   *            @arg @ref RCC_MCO1SOURCE_HSI48    HSI48 clock selected as MCO source for devices wit
 989:Drivers/STM32G0xx_HAL_Driver/Src/stm32g0xx_hal_rcc.c ****   *            @arg @ref RCC_MCO1SOURCE_HSI      HSI clock selected as MCO source
 990:Drivers/STM32G0xx_HAL_Driver/Src/stm32g0xx_hal_rcc.c ****   *            @arg @ref RCC_MCO1SOURCE_HSE      HSE clock selected as MCO sourcee
 991:Drivers/STM32G0xx_HAL_Driver/Src/stm32g0xx_hal_rcc.c ****   *            @arg @ref RCC_MCO1SOURCE_PLLCLK   main PLLR clock selected as MCO source
 992:Drivers/STM32G0xx_HAL_Driver/Src/stm32g0xx_hal_rcc.c ****   *            @arg @ref RCC_MCO1SOURCE_LSI      LSI clock selected as MCO source
 993:Drivers/STM32G0xx_HAL_Driver/Src/stm32g0xx_hal_rcc.c ****   *            @arg @ref RCC_MCO1SOURCE_LSE      LSE clock selected as MCO source
 994:Drivers/STM32G0xx_HAL_Driver/Src/stm32g0xx_hal_rcc.c ****   *            @arg @ref RCC_MCO1SOURCE_PLLPCLK  PLLP clock selected as MCO1 source(*)
 995:Drivers/STM32G0xx_HAL_Driver/Src/stm32g0xx_hal_rcc.c ****   *            @arg @ref RCC_MCO1SOURCE_PLLQCLK  PLLQ clock selected as MCO1 source(*)
 996:Drivers/STM32G0xx_HAL_Driver/Src/stm32g0xx_hal_rcc.c ****   *            @arg @ref RCC_MCO1SOURCE_RTCCLK   RTC clock selected as MCO1 source(*)
 997:Drivers/STM32G0xx_HAL_Driver/Src/stm32g0xx_hal_rcc.c ****   *            @arg @ref RCC_MCO1SOURCE_RTC_WKUP RTC_Wakeup selected as MCO1 source(*)
 998:Drivers/STM32G0xx_HAL_Driver/Src/stm32g0xx_hal_rcc.c ****   *            @arg @ref RCC_MCO2SOURCE_NOCLOCK  MCO2 output disabled, no clock on MCO2(*)
 999:Drivers/STM32G0xx_HAL_Driver/Src/stm32g0xx_hal_rcc.c ****   *            @arg @ref RCC_MCO2SOURCE_SYSCLK   system  clock selected as MCO2 source(*)
1000:Drivers/STM32G0xx_HAL_Driver/Src/stm32g0xx_hal_rcc.c ****   *            @arg @ref RCC_MCO2SOURCE_HSI48    HSI48 clock selected as MCO2 source for devices wi
1001:Drivers/STM32G0xx_HAL_Driver/Src/stm32g0xx_hal_rcc.c ****   *            @arg @ref RCC_MCO2SOURCE_HSI      HSI clock selected as MCO2 source(*)
1002:Drivers/STM32G0xx_HAL_Driver/Src/stm32g0xx_hal_rcc.c ****   *            @arg @ref RCC_MCO2SOURCE_HSE      HSE clock selected as MCO2 source(*)
1003:Drivers/STM32G0xx_HAL_Driver/Src/stm32g0xx_hal_rcc.c ****   *            @arg @ref RCC_MCO2SOURCE_PLLCLK   main PLLR clock selected as MCO2 source(*)
1004:Drivers/STM32G0xx_HAL_Driver/Src/stm32g0xx_hal_rcc.c ****   *            @arg @ref RCC_MCO2SOURCE_LSI      LSI clock selected as MCO2 source(*)
1005:Drivers/STM32G0xx_HAL_Driver/Src/stm32g0xx_hal_rcc.c ****   *            @arg @ref RCC_MCO2SOURCE_LSE      LSE clock selected as MCO2 source(*)
1006:Drivers/STM32G0xx_HAL_Driver/Src/stm32g0xx_hal_rcc.c ****   *            @arg @ref RCC_MCO2SOURCE_PLLPCLK  PLLP clock selected as MCO2 source(*)
1007:Drivers/STM32G0xx_HAL_Driver/Src/stm32g0xx_hal_rcc.c ****   *            @arg @ref RCC_MCO2SOURCE_PLLQCLK  PLLQ clock selected as MCO2 source(*)
1008:Drivers/STM32G0xx_HAL_Driver/Src/stm32g0xx_hal_rcc.c ****   *            @arg @ref RCC_MCO2SOURCE_RTCCLK   RTC clock selected as MCO2 source(*)
1009:Drivers/STM32G0xx_HAL_Driver/Src/stm32g0xx_hal_rcc.c ****   *            @arg @ref RCC_MCO2SOURCE_RTC_WKUP RTC_Wakeup selected as MCO2 source(*)
1010:Drivers/STM32G0xx_HAL_Driver/Src/stm32g0xx_hal_rcc.c ****   * @param  RCC_MCODiv  specifies the MCO prescaler.
1011:Drivers/STM32G0xx_HAL_Driver/Src/stm32g0xx_hal_rcc.c ****   *          This parameter can be one of the following values:
1012:Drivers/STM32G0xx_HAL_Driver/Src/stm32g0xx_hal_rcc.c ****   *            @arg @ref RCC_MCODIV_1     no division applied to MCO clock
1013:Drivers/STM32G0xx_HAL_Driver/Src/stm32g0xx_hal_rcc.c ****   *            @arg @ref RCC_MCODIV_2     division by 2 applied to MCO clock
1014:Drivers/STM32G0xx_HAL_Driver/Src/stm32g0xx_hal_rcc.c ****   *            @arg @ref RCC_MCODIV_4     division by 4 applied to MCO clock
1015:Drivers/STM32G0xx_HAL_Driver/Src/stm32g0xx_hal_rcc.c ****   *            @arg @ref RCC_MCODIV_8     division by 8 applied to MCO clock
1016:Drivers/STM32G0xx_HAL_Driver/Src/stm32g0xx_hal_rcc.c ****   *            @arg @ref RCC_MCODIV_16    division by 16 applied to MCO clock
1017:Drivers/STM32G0xx_HAL_Driver/Src/stm32g0xx_hal_rcc.c ****   *            @arg @ref RCC_MCODIV_32    division by 32 applied to MCO clock
1018:Drivers/STM32G0xx_HAL_Driver/Src/stm32g0xx_hal_rcc.c ****   *            @arg @ref RCC_MCODIV_64    division by 64 applied to MCO clock
1019:Drivers/STM32G0xx_HAL_Driver/Src/stm32g0xx_hal_rcc.c ****   *            @arg @ref RCC_MCODIV_128   division by 128 applied to MCO clock
1020:Drivers/STM32G0xx_HAL_Driver/Src/stm32g0xx_hal_rcc.c ****   *            @arg @ref RCC_MCO2DIV_1    no division applied to MCO2 clock(*)
1021:Drivers/STM32G0xx_HAL_Driver/Src/stm32g0xx_hal_rcc.c ****   *            @arg @ref RCC_MCO2DIV_2    division by 2 applied to MCO2 clock(*)
ARM GAS  /tmp/ccETUiog.s 			page 40


1022:Drivers/STM32G0xx_HAL_Driver/Src/stm32g0xx_hal_rcc.c ****   *            @arg @ref RCC_MCO2DIV_4    division by 4 applied to MCO2 clock(*)
1023:Drivers/STM32G0xx_HAL_Driver/Src/stm32g0xx_hal_rcc.c ****   *            @arg @ref RCC_MCO2DIV_8    division by 8 applied to MCO2 clock(*)
1024:Drivers/STM32G0xx_HAL_Driver/Src/stm32g0xx_hal_rcc.c ****   *            @arg @ref RCC_MCO2DIV_16   division by 16 applied to MCO2 clock(*)
1025:Drivers/STM32G0xx_HAL_Driver/Src/stm32g0xx_hal_rcc.c ****   *            @arg @ref RCC_MCO2DIV_32   division by 32 applied to MCO2 clock(*)
1026:Drivers/STM32G0xx_HAL_Driver/Src/stm32g0xx_hal_rcc.c ****   *            @arg @ref RCC_MCO2DIV_64   division by 64 applied to MCO2 clock(*)
1027:Drivers/STM32G0xx_HAL_Driver/Src/stm32g0xx_hal_rcc.c ****   *            @arg @ref RCC_MCO2DIV_128  division by 128 applied to MCO2 clock(*)
1028:Drivers/STM32G0xx_HAL_Driver/Src/stm32g0xx_hal_rcc.c ****   *            @arg @ref RCC_MCO2DIV_256  division by 256 applied to MCO2 clock(*)
1029:Drivers/STM32G0xx_HAL_Driver/Src/stm32g0xx_hal_rcc.c ****   *            @arg @ref RCC_MCO2DIV_512  division by 512 applied to MCO2 clock(*)
1030:Drivers/STM32G0xx_HAL_Driver/Src/stm32g0xx_hal_rcc.c ****   *            @arg @ref RCC_MCO2DIV_1024 division by 1024 applied to MCO2 clock(*)
1031:Drivers/STM32G0xx_HAL_Driver/Src/stm32g0xx_hal_rcc.c ****   *
1032:Drivers/STM32G0xx_HAL_Driver/Src/stm32g0xx_hal_rcc.c ****   * (*) Feature not available on all devices of the family
1033:Drivers/STM32G0xx_HAL_Driver/Src/stm32g0xx_hal_rcc.c ****   * @retval None
1034:Drivers/STM32G0xx_HAL_Driver/Src/stm32g0xx_hal_rcc.c ****   */
1035:Drivers/STM32G0xx_HAL_Driver/Src/stm32g0xx_hal_rcc.c **** void HAL_RCC_MCOConfig(uint32_t RCC_MCOx, uint32_t RCC_MCOSource, uint32_t RCC_MCODiv)
1036:Drivers/STM32G0xx_HAL_Driver/Src/stm32g0xx_hal_rcc.c **** {
 1152              		.loc 1 1036 0
 1153              		.cfi_startproc
 1154              		@ args = 0, pretend = 0, frame = 24
 1155              		@ frame_needed = 0, uses_anonymous_args = 0
 1156              	.LVL114:
 1157 0000 70B5     		push	{r4, r5, r6, lr}
 1158              	.LCFI3:
 1159              		.cfi_def_cfa_offset 16
 1160              		.cfi_offset 4, -16
 1161              		.cfi_offset 5, -12
 1162              		.cfi_offset 6, -8
 1163              		.cfi_offset 14, -4
 1164 0002 86B0     		sub	sp, sp, #24
 1165              	.LCFI4:
 1166              		.cfi_def_cfa_offset 40
 1167 0004 0E00     		movs	r6, r1
 1168 0006 1400     		movs	r4, r2
1037:Drivers/STM32G0xx_HAL_Driver/Src/stm32g0xx_hal_rcc.c ****   GPIO_InitTypeDef GPIO_InitStruct;
1038:Drivers/STM32G0xx_HAL_Driver/Src/stm32g0xx_hal_rcc.c **** 
1039:Drivers/STM32G0xx_HAL_Driver/Src/stm32g0xx_hal_rcc.c ****   /* Check the parameters */
1040:Drivers/STM32G0xx_HAL_Driver/Src/stm32g0xx_hal_rcc.c ****   assert_param(IS_RCC_MCO(RCC_MCOx));
1041:Drivers/STM32G0xx_HAL_Driver/Src/stm32g0xx_hal_rcc.c **** 
1042:Drivers/STM32G0xx_HAL_Driver/Src/stm32g0xx_hal_rcc.c ****   /* Common GPIO init parameters */
1043:Drivers/STM32G0xx_HAL_Driver/Src/stm32g0xx_hal_rcc.c ****   GPIO_InitStruct.Mode      = GPIO_MODE_AF_PP;
 1169              		.loc 1 1043 0
 1170 0008 0223     		movs	r3, #2
 1171 000a 0293     		str	r3, [sp, #8]
1044:Drivers/STM32G0xx_HAL_Driver/Src/stm32g0xx_hal_rcc.c ****   GPIO_InitStruct.Speed     = GPIO_SPEED_FREQ_VERY_HIGH;
 1172              		.loc 1 1044 0
 1173 000c 0133     		adds	r3, r3, #1
 1174 000e 0493     		str	r3, [sp, #16]
1045:Drivers/STM32G0xx_HAL_Driver/Src/stm32g0xx_hal_rcc.c ****   GPIO_InitStruct.Pull      = GPIO_NOPULL;
 1175              		.loc 1 1045 0
 1176 0010 0023     		movs	r3, #0
 1177 0012 0393     		str	r3, [sp, #12]
1046:Drivers/STM32G0xx_HAL_Driver/Src/stm32g0xx_hal_rcc.c **** 
1047:Drivers/STM32G0xx_HAL_Driver/Src/stm32g0xx_hal_rcc.c ****   if (RCC_MCOx == RCC_MCO1)
 1178              		.loc 1 1047 0
 1179 0014 0028     		cmp	r0, #0
 1180 0016 18D1     		bne	.L101
 1181              	.LBB7:
1048:Drivers/STM32G0xx_HAL_Driver/Src/stm32g0xx_hal_rcc.c ****   {
ARM GAS  /tmp/ccETUiog.s 			page 41


1049:Drivers/STM32G0xx_HAL_Driver/Src/stm32g0xx_hal_rcc.c ****     assert_param(IS_RCC_MCODIV(RCC_MCODiv));
1050:Drivers/STM32G0xx_HAL_Driver/Src/stm32g0xx_hal_rcc.c ****     assert_param(IS_RCC_MCO1SOURCE(RCC_MCOSource));
1051:Drivers/STM32G0xx_HAL_Driver/Src/stm32g0xx_hal_rcc.c ****     /* MCO1 Clock Enable */
1052:Drivers/STM32G0xx_HAL_Driver/Src/stm32g0xx_hal_rcc.c ****     MCO1_CLK_ENABLE();
 1182              		.loc 1 1052 0
 1183 0018 0D4D     		ldr	r5, .L103
 1184 001a 6A6B     		ldr	r2, [r5, #52]
 1185              	.LVL115:
 1186 001c 0121     		movs	r1, #1
 1187              	.LVL116:
 1188 001e 0A43     		orrs	r2, r1
 1189 0020 6A63     		str	r2, [r5, #52]
 1190 0022 6B6B     		ldr	r3, [r5, #52]
 1191 0024 0B40     		ands	r3, r1
 1192 0026 0093     		str	r3, [sp]
 1193 0028 009B     		ldr	r3, [sp]
 1194              	.LBE7:
1053:Drivers/STM32G0xx_HAL_Driver/Src/stm32g0xx_hal_rcc.c ****     /* Configure the MCO1 pin in alternate function mode */
1054:Drivers/STM32G0xx_HAL_Driver/Src/stm32g0xx_hal_rcc.c ****     GPIO_InitStruct.Pin = MCO1_PIN;
 1195              		.loc 1 1054 0
 1196 002a 8023     		movs	r3, #128
 1197 002c 5B00     		lsls	r3, r3, #1
 1198 002e 0193     		str	r3, [sp, #4]
1055:Drivers/STM32G0xx_HAL_Driver/Src/stm32g0xx_hal_rcc.c ****     GPIO_InitStruct.Alternate = GPIO_AF0_MCO;
 1199              		.loc 1 1055 0
 1200 0030 0023     		movs	r3, #0
 1201 0032 0593     		str	r3, [sp, #20]
1056:Drivers/STM32G0xx_HAL_Driver/Src/stm32g0xx_hal_rcc.c ****     HAL_GPIO_Init(MCO1_GPIO_PORT, &GPIO_InitStruct);
 1202              		.loc 1 1056 0
 1203 0034 01A9     		add	r1, sp, #4
 1204 0036 A020     		movs	r0, #160
 1205              	.LVL117:
 1206 0038 C005     		lsls	r0, r0, #23
 1207 003a FFF7FEFF 		bl	HAL_GPIO_Init
 1208              	.LVL118:
1057:Drivers/STM32G0xx_HAL_Driver/Src/stm32g0xx_hal_rcc.c ****     /* Mask MCOSEL[] and MCOPRE[] bits then set MCO clock source and prescaler */
1058:Drivers/STM32G0xx_HAL_Driver/Src/stm32g0xx_hal_rcc.c ****     MODIFY_REG(RCC->CFGR, (RCC_CFGR_MCOSEL | RCC_CFGR_MCOPRE), (RCC_MCOSource | RCC_MCODiv));
 1209              		.loc 1 1058 0
 1210 003e AA68     		ldr	r2, [r5, #8]
 1211 0040 044B     		ldr	r3, .L103+4
 1212 0042 1340     		ands	r3, r2
 1213 0044 3443     		orrs	r4, r6
 1214              	.LVL119:
 1215 0046 1C43     		orrs	r4, r3
 1216 0048 AC60     		str	r4, [r5, #8]
 1217              	.L101:
1059:Drivers/STM32G0xx_HAL_Driver/Src/stm32g0xx_hal_rcc.c ****   }
1060:Drivers/STM32G0xx_HAL_Driver/Src/stm32g0xx_hal_rcc.c **** #if defined(RCC_MCO2_SUPPORT)
1061:Drivers/STM32G0xx_HAL_Driver/Src/stm32g0xx_hal_rcc.c ****   else if (RCC_MCOx == RCC_MCO2)
1062:Drivers/STM32G0xx_HAL_Driver/Src/stm32g0xx_hal_rcc.c ****   {
1063:Drivers/STM32G0xx_HAL_Driver/Src/stm32g0xx_hal_rcc.c ****     assert_param(IS_RCC_MCO2DIV(RCC_MCODiv));
1064:Drivers/STM32G0xx_HAL_Driver/Src/stm32g0xx_hal_rcc.c ****     assert_param(IS_RCC_MCO2SOURCE(RCC_MCOSource));
1065:Drivers/STM32G0xx_HAL_Driver/Src/stm32g0xx_hal_rcc.c ****     /* MCO2 Clock Enable */
1066:Drivers/STM32G0xx_HAL_Driver/Src/stm32g0xx_hal_rcc.c ****     MCO2_CLK_ENABLE();
1067:Drivers/STM32G0xx_HAL_Driver/Src/stm32g0xx_hal_rcc.c ****     /* Configure the MCO2 pin in alternate function mode */
1068:Drivers/STM32G0xx_HAL_Driver/Src/stm32g0xx_hal_rcc.c ****     GPIO_InitStruct.Pin       = MCO2_PIN;
1069:Drivers/STM32G0xx_HAL_Driver/Src/stm32g0xx_hal_rcc.c ****     GPIO_InitStruct.Alternate = GPIO_AF3_MCO2;
ARM GAS  /tmp/ccETUiog.s 			page 42


1070:Drivers/STM32G0xx_HAL_Driver/Src/stm32g0xx_hal_rcc.c ****     HAL_GPIO_Init(MCO2_GPIO_PORT, &GPIO_InitStruct);
1071:Drivers/STM32G0xx_HAL_Driver/Src/stm32g0xx_hal_rcc.c ****     /* Mask MCOSEL[] and MCOPRE[] bits then set MCO clock source and prescaler */
1072:Drivers/STM32G0xx_HAL_Driver/Src/stm32g0xx_hal_rcc.c ****     MODIFY_REG(RCC->CFGR, (RCC_CFGR_MCO2SEL | RCC_CFGR_MCO2PRE), (RCC_MCOSource | RCC_MCODiv));
1073:Drivers/STM32G0xx_HAL_Driver/Src/stm32g0xx_hal_rcc.c ****   }
1074:Drivers/STM32G0xx_HAL_Driver/Src/stm32g0xx_hal_rcc.c **** #endif /* RCC_MCO2_SUPPORT */
1075:Drivers/STM32G0xx_HAL_Driver/Src/stm32g0xx_hal_rcc.c **** }
 1218              		.loc 1 1075 0
 1219 004a 06B0     		add	sp, sp, #24
 1220              		@ sp needed
 1221              	.LVL120:
 1222 004c 70BD     		pop	{r4, r5, r6, pc}
 1223              	.L104:
 1224 004e C046     		.align	2
 1225              	.L103:
 1226 0050 00100240 		.word	1073876992
 1227 0054 FFFFFF88 		.word	-1996488705
 1228              		.cfi_endproc
 1229              	.LFE313:
 1231              		.global	__aeabi_uidiv
 1232              		.section	.text.HAL_RCC_GetSysClockFreq,"ax",%progbits
 1233              		.align	2
 1234              		.global	HAL_RCC_GetSysClockFreq
 1235              		.code	16
 1236              		.thumb_func
 1238              	HAL_RCC_GetSysClockFreq:
 1239              	.LFB314:
1076:Drivers/STM32G0xx_HAL_Driver/Src/stm32g0xx_hal_rcc.c **** 
1077:Drivers/STM32G0xx_HAL_Driver/Src/stm32g0xx_hal_rcc.c **** /**
1078:Drivers/STM32G0xx_HAL_Driver/Src/stm32g0xx_hal_rcc.c ****   * @brief  Return the SYSCLK frequency.
1079:Drivers/STM32G0xx_HAL_Driver/Src/stm32g0xx_hal_rcc.c ****   *
1080:Drivers/STM32G0xx_HAL_Driver/Src/stm32g0xx_hal_rcc.c ****   * @note   The system frequency computed by this function is not the real
1081:Drivers/STM32G0xx_HAL_Driver/Src/stm32g0xx_hal_rcc.c ****   *         frequency in the chip. It is calculated based on the predefined
1082:Drivers/STM32G0xx_HAL_Driver/Src/stm32g0xx_hal_rcc.c ****   *         constant and the selected clock source:
1083:Drivers/STM32G0xx_HAL_Driver/Src/stm32g0xx_hal_rcc.c ****   * @note     If SYSCLK source is HSI, function returns values based on HSI_VALUE/HSIDIV(*)
1084:Drivers/STM32G0xx_HAL_Driver/Src/stm32g0xx_hal_rcc.c ****   * @note     If SYSCLK source is HSE, function returns values based on HSE_VALUE(**)
1085:Drivers/STM32G0xx_HAL_Driver/Src/stm32g0xx_hal_rcc.c ****   * @note     If SYSCLK source is PLL, function returns values based on HSE_VALUE(**),
1086:Drivers/STM32G0xx_HAL_Driver/Src/stm32g0xx_hal_rcc.c ****   *           or HSI_VALUE(*) multiplied/divided by the PLL factors.
1087:Drivers/STM32G0xx_HAL_Driver/Src/stm32g0xx_hal_rcc.c ****   * @note     If SYSCLK source is LSI, function returns values based on LSI_VALUE(***)
1088:Drivers/STM32G0xx_HAL_Driver/Src/stm32g0xx_hal_rcc.c ****   * @note     If SYSCLK source is LSE, function returns values based on LSE_VALUE(****)
1089:Drivers/STM32G0xx_HAL_Driver/Src/stm32g0xx_hal_rcc.c ****   * @note     (*) HSI_VALUE is a constant defined in stm32g0xx_hal_conf.h file (default value
1090:Drivers/STM32G0xx_HAL_Driver/Src/stm32g0xx_hal_rcc.c ****   *               16 MHz) but the real value may vary depending on the variations
1091:Drivers/STM32G0xx_HAL_Driver/Src/stm32g0xx_hal_rcc.c ****   *               in voltage and temperature.
1092:Drivers/STM32G0xx_HAL_Driver/Src/stm32g0xx_hal_rcc.c ****   * @note     (**) HSE_VALUE is a constant defined in stm32g0xx_hal_conf.h file (default value
1093:Drivers/STM32G0xx_HAL_Driver/Src/stm32g0xx_hal_rcc.c ****   *                8 MHz), user has to ensure that HSE_VALUE is same as the real
1094:Drivers/STM32G0xx_HAL_Driver/Src/stm32g0xx_hal_rcc.c ****   *                frequency of the crystal used. Otherwise, this function may
1095:Drivers/STM32G0xx_HAL_Driver/Src/stm32g0xx_hal_rcc.c ****   *                have wrong result.
1096:Drivers/STM32G0xx_HAL_Driver/Src/stm32g0xx_hal_rcc.c ****   * @note     (***) LSE_VALUE is a constant defined in stm32g0xx_hal_conf.h file (default value
1097:Drivers/STM32G0xx_HAL_Driver/Src/stm32g0xx_hal_rcc.c ****   *               32768 Hz).
1098:Drivers/STM32G0xx_HAL_Driver/Src/stm32g0xx_hal_rcc.c ****   * @note     (****) LSI_VALUE is a constant defined in stm32g0xx_hal_conf.h file (default value
1099:Drivers/STM32G0xx_HAL_Driver/Src/stm32g0xx_hal_rcc.c ****   *               32000 Hz).
1100:Drivers/STM32G0xx_HAL_Driver/Src/stm32g0xx_hal_rcc.c ****   *
1101:Drivers/STM32G0xx_HAL_Driver/Src/stm32g0xx_hal_rcc.c ****   * @note   The result of this function could be not correct when using fractional
1102:Drivers/STM32G0xx_HAL_Driver/Src/stm32g0xx_hal_rcc.c ****   *         value for HSE crystal.
1103:Drivers/STM32G0xx_HAL_Driver/Src/stm32g0xx_hal_rcc.c ****   *
1104:Drivers/STM32G0xx_HAL_Driver/Src/stm32g0xx_hal_rcc.c ****   * @note   This function can be used by the user application to compute the
1105:Drivers/STM32G0xx_HAL_Driver/Src/stm32g0xx_hal_rcc.c ****   *         baudrate for the communication peripherals or configure other parameters.
1106:Drivers/STM32G0xx_HAL_Driver/Src/stm32g0xx_hal_rcc.c ****   *
ARM GAS  /tmp/ccETUiog.s 			page 43


1107:Drivers/STM32G0xx_HAL_Driver/Src/stm32g0xx_hal_rcc.c ****   * @note   Each time SYSCLK changes, this function must be called to update the
1108:Drivers/STM32G0xx_HAL_Driver/Src/stm32g0xx_hal_rcc.c ****   *         right SYSCLK value. Otherwise, any configuration based on this function will be incorre
1109:Drivers/STM32G0xx_HAL_Driver/Src/stm32g0xx_hal_rcc.c ****   *
1110:Drivers/STM32G0xx_HAL_Driver/Src/stm32g0xx_hal_rcc.c ****   *
1111:Drivers/STM32G0xx_HAL_Driver/Src/stm32g0xx_hal_rcc.c ****   * @retval SYSCLK frequency
1112:Drivers/STM32G0xx_HAL_Driver/Src/stm32g0xx_hal_rcc.c ****   */
1113:Drivers/STM32G0xx_HAL_Driver/Src/stm32g0xx_hal_rcc.c **** uint32_t HAL_RCC_GetSysClockFreq(void)
1114:Drivers/STM32G0xx_HAL_Driver/Src/stm32g0xx_hal_rcc.c **** {
 1240              		.loc 1 1114 0
 1241              		.cfi_startproc
 1242              		@ args = 0, pretend = 0, frame = 0
 1243              		@ frame_needed = 0, uses_anonymous_args = 0
 1244 0000 10B5     		push	{r4, lr}
 1245              	.LCFI5:
 1246              		.cfi_def_cfa_offset 8
 1247              		.cfi_offset 4, -8
 1248              		.cfi_offset 14, -4
1115:Drivers/STM32G0xx_HAL_Driver/Src/stm32g0xx_hal_rcc.c ****   uint32_t pllvco, pllsource, pllr, pllm, hsidiv;
1116:Drivers/STM32G0xx_HAL_Driver/Src/stm32g0xx_hal_rcc.c ****   uint32_t sysclockfreq;
1117:Drivers/STM32G0xx_HAL_Driver/Src/stm32g0xx_hal_rcc.c **** 
1118:Drivers/STM32G0xx_HAL_Driver/Src/stm32g0xx_hal_rcc.c ****   if (__HAL_RCC_GET_SYSCLK_SOURCE() == RCC_SYSCLKSOURCE_STATUS_HSI)
 1249              		.loc 1 1118 0
 1250 0002 2A4B     		ldr	r3, .L116
 1251 0004 9B68     		ldr	r3, [r3, #8]
 1252 0006 3822     		movs	r2, #56
 1253 0008 1A42     		tst	r2, r3
 1254 000a 0AD1     		bne	.L106
1119:Drivers/STM32G0xx_HAL_Driver/Src/stm32g0xx_hal_rcc.c ****   {
1120:Drivers/STM32G0xx_HAL_Driver/Src/stm32g0xx_hal_rcc.c ****     /* HSISYS can be derived for HSI16 */
1121:Drivers/STM32G0xx_HAL_Driver/Src/stm32g0xx_hal_rcc.c ****     hsidiv = (1UL << ((READ_BIT(RCC->CR, RCC_CR_HSIDIV)) >> RCC_CR_HSIDIV_Pos));
 1255              		.loc 1 1121 0
 1256 000c 274B     		ldr	r3, .L116
 1257 000e 1B68     		ldr	r3, [r3]
 1258 0010 DB0A     		lsrs	r3, r3, #11
 1259 0012 313A     		subs	r2, r2, #49
 1260 0014 1340     		ands	r3, r2
 1261 0016 0121     		movs	r1, #1
 1262 0018 9940     		lsls	r1, r1, r3
 1263              	.LVL121:
1122:Drivers/STM32G0xx_HAL_Driver/Src/stm32g0xx_hal_rcc.c **** 
1123:Drivers/STM32G0xx_HAL_Driver/Src/stm32g0xx_hal_rcc.c ****     /* HSI used as system clock source */
1124:Drivers/STM32G0xx_HAL_Driver/Src/stm32g0xx_hal_rcc.c ****     sysclockfreq = (HSI_VALUE / hsidiv);
 1264              		.loc 1 1124 0
 1265 001a 2548     		ldr	r0, .L116+4
 1266 001c FFF7FEFF 		bl	__aeabi_uidiv
 1267              	.LVL122:
 1268 0020 43E0     		b	.L107
 1269              	.LVL123:
 1270              	.L106:
1125:Drivers/STM32G0xx_HAL_Driver/Src/stm32g0xx_hal_rcc.c ****   }
1126:Drivers/STM32G0xx_HAL_Driver/Src/stm32g0xx_hal_rcc.c ****   else if (__HAL_RCC_GET_SYSCLK_SOURCE() == RCC_SYSCLKSOURCE_STATUS_HSE)
 1271              		.loc 1 1126 0
 1272 0022 224B     		ldr	r3, .L116
 1273 0024 9B68     		ldr	r3, [r3, #8]
 1274 0026 3822     		movs	r2, #56
 1275 0028 1340     		ands	r3, r2
 1276 002a 082B     		cmp	r3, #8
ARM GAS  /tmp/ccETUiog.s 			page 44


 1277 002c 37D0     		beq	.L112
1127:Drivers/STM32G0xx_HAL_Driver/Src/stm32g0xx_hal_rcc.c ****   {
1128:Drivers/STM32G0xx_HAL_Driver/Src/stm32g0xx_hal_rcc.c ****     /* HSE used as system clock source */
1129:Drivers/STM32G0xx_HAL_Driver/Src/stm32g0xx_hal_rcc.c ****     sysclockfreq = HSE_VALUE;
1130:Drivers/STM32G0xx_HAL_Driver/Src/stm32g0xx_hal_rcc.c ****   }
1131:Drivers/STM32G0xx_HAL_Driver/Src/stm32g0xx_hal_rcc.c ****   else if (__HAL_RCC_GET_SYSCLK_SOURCE() == RCC_SYSCLKSOURCE_STATUS_PLLCLK)
 1278              		.loc 1 1131 0
 1279 002e 1F4B     		ldr	r3, .L116
 1280 0030 9B68     		ldr	r3, [r3, #8]
 1281 0032 1340     		ands	r3, r2
 1282 0034 102B     		cmp	r3, #16
 1283 0036 24D1     		bne	.L108
1132:Drivers/STM32G0xx_HAL_Driver/Src/stm32g0xx_hal_rcc.c ****   {
1133:Drivers/STM32G0xx_HAL_Driver/Src/stm32g0xx_hal_rcc.c ****     /* PLL used as system clock  source */
1134:Drivers/STM32G0xx_HAL_Driver/Src/stm32g0xx_hal_rcc.c **** 
1135:Drivers/STM32G0xx_HAL_Driver/Src/stm32g0xx_hal_rcc.c ****     /* PLL_VCO = ((HSE_VALUE or HSI_VALUE)/ PLLM) * PLLN
1136:Drivers/STM32G0xx_HAL_Driver/Src/stm32g0xx_hal_rcc.c ****     SYSCLK = PLL_VCO / PLLR
1137:Drivers/STM32G0xx_HAL_Driver/Src/stm32g0xx_hal_rcc.c ****     */
1138:Drivers/STM32G0xx_HAL_Driver/Src/stm32g0xx_hal_rcc.c ****     pllsource = (RCC->PLLCFGR & RCC_PLLCFGR_PLLSRC);
 1284              		.loc 1 1138 0
 1285 0038 1C4A     		ldr	r2, .L116
 1286 003a D368     		ldr	r3, [r2, #12]
 1287 003c 0321     		movs	r1, #3
 1288 003e 0B40     		ands	r3, r1
 1289              	.LVL124:
1139:Drivers/STM32G0xx_HAL_Driver/Src/stm32g0xx_hal_rcc.c ****     pllm = ((RCC->PLLCFGR & RCC_PLLCFGR_PLLM) >> RCC_PLLCFGR_PLLM_Pos) + 1U ;
 1290              		.loc 1 1139 0
 1291 0040 D168     		ldr	r1, [r2, #12]
 1292 0042 0909     		lsrs	r1, r1, #4
 1293 0044 0722     		movs	r2, #7
 1294 0046 1140     		ands	r1, r2
 1295 0048 0131     		adds	r1, r1, #1
 1296              	.LVL125:
1140:Drivers/STM32G0xx_HAL_Driver/Src/stm32g0xx_hal_rcc.c **** 
1141:Drivers/STM32G0xx_HAL_Driver/Src/stm32g0xx_hal_rcc.c ****     switch (pllsource)
 1297              		.loc 1 1141 0
 1298 004a 032B     		cmp	r3, #3
 1299 004c 09D1     		bne	.L115
1142:Drivers/STM32G0xx_HAL_Driver/Src/stm32g0xx_hal_rcc.c ****     {
1143:Drivers/STM32G0xx_HAL_Driver/Src/stm32g0xx_hal_rcc.c ****       case RCC_PLLSOURCE_HSE:  /* HSE used as PLL clock source */
1144:Drivers/STM32G0xx_HAL_Driver/Src/stm32g0xx_hal_rcc.c ****         pllvco = (HSE_VALUE / pllm) * ((RCC->PLLCFGR & RCC_PLLCFGR_PLLN) >> RCC_PLLCFGR_PLLN_Pos);
 1300              		.loc 1 1144 0
 1301 004e 1948     		ldr	r0, .L116+8
 1302 0050 FFF7FEFF 		bl	__aeabi_uidiv
 1303              	.LVL126:
 1304 0054 154B     		ldr	r3, .L116
 1305 0056 DB68     		ldr	r3, [r3, #12]
 1306 0058 1B0A     		lsrs	r3, r3, #8
 1307 005a 7F22     		movs	r2, #127
 1308 005c 1340     		ands	r3, r2
 1309 005e 5843     		muls	r0, r3
 1310              	.LVL127:
1145:Drivers/STM32G0xx_HAL_Driver/Src/stm32g0xx_hal_rcc.c ****         break;
 1311              		.loc 1 1145 0
 1312 0060 08E0     		b	.L111
 1313              	.LVL128:
 1314              	.L115:
ARM GAS  /tmp/ccETUiog.s 			page 45


1146:Drivers/STM32G0xx_HAL_Driver/Src/stm32g0xx_hal_rcc.c **** 
1147:Drivers/STM32G0xx_HAL_Driver/Src/stm32g0xx_hal_rcc.c ****       case RCC_PLLSOURCE_HSI:  /* HSI16 used as PLL clock source */
1148:Drivers/STM32G0xx_HAL_Driver/Src/stm32g0xx_hal_rcc.c ****       default:                 /* HSI16 used as PLL clock source */
1149:Drivers/STM32G0xx_HAL_Driver/Src/stm32g0xx_hal_rcc.c ****         pllvco = (HSI_VALUE / pllm) * ((RCC->PLLCFGR & RCC_PLLCFGR_PLLN) >> RCC_PLLCFGR_PLLN_Pos) ;
 1315              		.loc 1 1149 0
 1316 0062 1348     		ldr	r0, .L116+4
 1317 0064 FFF7FEFF 		bl	__aeabi_uidiv
 1318              	.LVL129:
 1319 0068 104B     		ldr	r3, .L116
 1320 006a DB68     		ldr	r3, [r3, #12]
 1321 006c 1B0A     		lsrs	r3, r3, #8
 1322 006e 7F22     		movs	r2, #127
 1323 0070 1340     		ands	r3, r2
 1324 0072 5843     		muls	r0, r3
 1325              	.LVL130:
 1326              	.L111:
1150:Drivers/STM32G0xx_HAL_Driver/Src/stm32g0xx_hal_rcc.c ****         break;
1151:Drivers/STM32G0xx_HAL_Driver/Src/stm32g0xx_hal_rcc.c ****     }
1152:Drivers/STM32G0xx_HAL_Driver/Src/stm32g0xx_hal_rcc.c ****     pllr = (((RCC->PLLCFGR & RCC_PLLCFGR_PLLR) >> RCC_PLLCFGR_PLLR_Pos) + 1U);
 1327              		.loc 1 1152 0
 1328 0074 0D4B     		ldr	r3, .L116
 1329 0076 D968     		ldr	r1, [r3, #12]
 1330 0078 490F     		lsrs	r1, r1, #29
 1331 007a 0131     		adds	r1, r1, #1
 1332              	.LVL131:
1153:Drivers/STM32G0xx_HAL_Driver/Src/stm32g0xx_hal_rcc.c ****     sysclockfreq = pllvco / pllr;
 1333              		.loc 1 1153 0
 1334 007c FFF7FEFF 		bl	__aeabi_uidiv
 1335              	.LVL132:
 1336 0080 13E0     		b	.L107
 1337              	.LVL133:
 1338              	.L108:
1154:Drivers/STM32G0xx_HAL_Driver/Src/stm32g0xx_hal_rcc.c ****   }
1155:Drivers/STM32G0xx_HAL_Driver/Src/stm32g0xx_hal_rcc.c ****   else if (__HAL_RCC_GET_SYSCLK_SOURCE() == RCC_SYSCLKSOURCE_STATUS_LSE)
 1339              		.loc 1 1155 0
 1340 0082 0A4B     		ldr	r3, .L116
 1341 0084 9B68     		ldr	r3, [r3, #8]
 1342 0086 3822     		movs	r2, #56
 1343 0088 1340     		ands	r3, r2
 1344 008a 202B     		cmp	r3, #32
 1345 008c 09D0     		beq	.L113
1156:Drivers/STM32G0xx_HAL_Driver/Src/stm32g0xx_hal_rcc.c ****   {
1157:Drivers/STM32G0xx_HAL_Driver/Src/stm32g0xx_hal_rcc.c ****     /* LSE used as system clock source */
1158:Drivers/STM32G0xx_HAL_Driver/Src/stm32g0xx_hal_rcc.c ****     sysclockfreq = LSE_VALUE;
1159:Drivers/STM32G0xx_HAL_Driver/Src/stm32g0xx_hal_rcc.c ****   }
1160:Drivers/STM32G0xx_HAL_Driver/Src/stm32g0xx_hal_rcc.c ****   else if (__HAL_RCC_GET_SYSCLK_SOURCE() == RCC_SYSCLKSOURCE_STATUS_LSI)
 1346              		.loc 1 1160 0
 1347 008e 074B     		ldr	r3, .L116
 1348 0090 9B68     		ldr	r3, [r3, #8]
 1349 0092 1340     		ands	r3, r2
 1350 0094 182B     		cmp	r3, #24
 1351 0096 07D1     		bne	.L114
1161:Drivers/STM32G0xx_HAL_Driver/Src/stm32g0xx_hal_rcc.c ****   {
1162:Drivers/STM32G0xx_HAL_Driver/Src/stm32g0xx_hal_rcc.c ****     /* LSI used as system clock source */
1163:Drivers/STM32G0xx_HAL_Driver/Src/stm32g0xx_hal_rcc.c ****     sysclockfreq = LSI_VALUE;
 1352              		.loc 1 1163 0
 1353 0098 FA20     		movs	r0, #250
ARM GAS  /tmp/ccETUiog.s 			page 46


 1354 009a C001     		lsls	r0, r0, #7
 1355 009c 05E0     		b	.L107
 1356              	.L112:
1129:Drivers/STM32G0xx_HAL_Driver/Src/stm32g0xx_hal_rcc.c ****   }
 1357              		.loc 1 1129 0
 1358 009e 0548     		ldr	r0, .L116+8
 1359 00a0 03E0     		b	.L107
 1360              	.L113:
1158:Drivers/STM32G0xx_HAL_Driver/Src/stm32g0xx_hal_rcc.c ****   }
 1361              		.loc 1 1158 0
 1362 00a2 8020     		movs	r0, #128
 1363 00a4 0002     		lsls	r0, r0, #8
 1364 00a6 00E0     		b	.L107
 1365              	.L114:
1164:Drivers/STM32G0xx_HAL_Driver/Src/stm32g0xx_hal_rcc.c ****   }
1165:Drivers/STM32G0xx_HAL_Driver/Src/stm32g0xx_hal_rcc.c ****   else
1166:Drivers/STM32G0xx_HAL_Driver/Src/stm32g0xx_hal_rcc.c ****   {
1167:Drivers/STM32G0xx_HAL_Driver/Src/stm32g0xx_hal_rcc.c ****     sysclockfreq = 0U;
 1366              		.loc 1 1167 0
 1367 00a8 0020     		movs	r0, #0
 1368              	.L107:
 1369              	.LVL134:
1168:Drivers/STM32G0xx_HAL_Driver/Src/stm32g0xx_hal_rcc.c ****   }
1169:Drivers/STM32G0xx_HAL_Driver/Src/stm32g0xx_hal_rcc.c **** 
1170:Drivers/STM32G0xx_HAL_Driver/Src/stm32g0xx_hal_rcc.c ****   return sysclockfreq;
1171:Drivers/STM32G0xx_HAL_Driver/Src/stm32g0xx_hal_rcc.c **** }
 1370              		.loc 1 1171 0
 1371              		@ sp needed
 1372 00aa 10BD     		pop	{r4, pc}
 1373              	.L117:
 1374              		.align	2
 1375              	.L116:
 1376 00ac 00100240 		.word	1073876992
 1377 00b0 0024F400 		.word	16000000
 1378 00b4 00127A00 		.word	8000000
 1379              		.cfi_endproc
 1380              	.LFE314:
 1382              		.section	.text.HAL_RCC_ClockConfig,"ax",%progbits
 1383              		.align	2
 1384              		.global	HAL_RCC_ClockConfig
 1385              		.code	16
 1386              		.thumb_func
 1388              	HAL_RCC_ClockConfig:
 1389              	.LFB312:
 807:Drivers/STM32G0xx_HAL_Driver/Src/stm32g0xx_hal_rcc.c ****   uint32_t tickstart;
 1390              		.loc 1 807 0
 1391              		.cfi_startproc
 1392              		@ args = 0, pretend = 0, frame = 0
 1393              		@ frame_needed = 0, uses_anonymous_args = 0
 1394              	.LVL135:
 1395 0000 70B5     		push	{r4, r5, r6, lr}
 1396              	.LCFI6:
 1397              		.cfi_def_cfa_offset 16
 1398              		.cfi_offset 4, -16
 1399              		.cfi_offset 5, -12
 1400              		.cfi_offset 6, -8
 1401              		.cfi_offset 14, -4
ARM GAS  /tmp/ccETUiog.s 			page 47


 1402 0002 0400     		movs	r4, r0
 1403 0004 0D00     		movs	r5, r1
 811:Drivers/STM32G0xx_HAL_Driver/Src/stm32g0xx_hal_rcc.c ****   {
 1404              		.loc 1 811 0
 1405 0006 0028     		cmp	r0, #0
 1406 0008 00D1     		bne	.LCB1440
 1407 000a A4E0     		b	.L137	@long jump
 1408              	.LCB1440:
 825:Drivers/STM32G0xx_HAL_Driver/Src/stm32g0xx_hal_rcc.c ****   {
 1409              		.loc 1 825 0
 1410 000c 5B4B     		ldr	r3, .L146
 1411 000e 1B68     		ldr	r3, [r3]
 1412 0010 0722     		movs	r2, #7
 1413 0012 1340     		ands	r3, r2
 1414 0014 8B42     		cmp	r3, r1
 1415 0016 16D2     		bcs	.L120
 828:Drivers/STM32G0xx_HAL_Driver/Src/stm32g0xx_hal_rcc.c **** 
 1416              		.loc 1 828 0
 1417 0018 584A     		ldr	r2, .L146
 1418 001a 1368     		ldr	r3, [r2]
 1419 001c 0721     		movs	r1, #7
 1420              	.LVL136:
 1421 001e 8B43     		bics	r3, r1
 1422 0020 2B43     		orrs	r3, r5
 1423 0022 1360     		str	r3, [r2]
 832:Drivers/STM32G0xx_HAL_Driver/Src/stm32g0xx_hal_rcc.c **** 
 1424              		.loc 1 832 0
 1425 0024 FFF7FEFF 		bl	HAL_GetTick
 1426              	.LVL137:
 1427 0028 0600     		movs	r6, r0
 1428              	.LVL138:
 834:Drivers/STM32G0xx_HAL_Driver/Src/stm32g0xx_hal_rcc.c ****     {
 1429              		.loc 1 834 0
 1430 002a 06E0     		b	.L121
 1431              	.LVL139:
 1432              	.L122:
 836:Drivers/STM32G0xx_HAL_Driver/Src/stm32g0xx_hal_rcc.c ****       {
 1433              		.loc 1 836 0
 1434 002c FFF7FEFF 		bl	HAL_GetTick
 1435              	.LVL140:
 1436 0030 801B     		subs	r0, r0, r6
 1437 0032 534B     		ldr	r3, .L146+4
 1438 0034 9842     		cmp	r0, r3
 1439 0036 00D9     		bls	.LCB1469
 1440 0038 8FE0     		b	.L138	@long jump
 1441              	.LCB1469:
 1442              	.L121:
 834:Drivers/STM32G0xx_HAL_Driver/Src/stm32g0xx_hal_rcc.c ****     {
 1443              		.loc 1 834 0
 1444 003a 504B     		ldr	r3, .L146
 1445 003c 1B68     		ldr	r3, [r3]
 1446 003e 0722     		movs	r2, #7
 1447 0040 1340     		ands	r3, r2
 1448 0042 9D42     		cmp	r5, r3
 1449 0044 F2D1     		bne	.L122
 1450              	.LVL141:
 1451              	.L120:
ARM GAS  /tmp/ccETUiog.s 			page 48


 844:Drivers/STM32G0xx_HAL_Driver/Src/stm32g0xx_hal_rcc.c ****   {
 1452              		.loc 1 844 0
 1453 0046 2368     		ldr	r3, [r4]
 1454 0048 9A07     		lsls	r2, r3, #30
 1455 004a 0ED5     		bpl	.L123
 848:Drivers/STM32G0xx_HAL_Driver/Src/stm32g0xx_hal_rcc.c ****     {
 1456              		.loc 1 848 0
 1457 004c 5B07     		lsls	r3, r3, #29
 1458 004e 05D5     		bpl	.L124
 850:Drivers/STM32G0xx_HAL_Driver/Src/stm32g0xx_hal_rcc.c ****     }
 1459              		.loc 1 850 0
 1460 0050 4C4A     		ldr	r2, .L146+8
 1461 0052 9368     		ldr	r3, [r2, #8]
 1462 0054 E021     		movs	r1, #224
 1463 0056 C901     		lsls	r1, r1, #7
 1464 0058 0B43     		orrs	r3, r1
 1465 005a 9360     		str	r3, [r2, #8]
 1466              	.L124:
 855:Drivers/STM32G0xx_HAL_Driver/Src/stm32g0xx_hal_rcc.c ****   }
 1467              		.loc 1 855 0
 1468 005c 494A     		ldr	r2, .L146+8
 1469 005e 9168     		ldr	r1, [r2, #8]
 1470 0060 494B     		ldr	r3, .L146+12
 1471 0062 0B40     		ands	r3, r1
 1472 0064 A168     		ldr	r1, [r4, #8]
 1473 0066 0B43     		orrs	r3, r1
 1474 0068 9360     		str	r3, [r2, #8]
 1475              	.L123:
 859:Drivers/STM32G0xx_HAL_Driver/Src/stm32g0xx_hal_rcc.c ****   {
 1476              		.loc 1 859 0
 1477 006a 2368     		ldr	r3, [r4]
 1478 006c DB07     		lsls	r3, r3, #31
 1479 006e 38D5     		bpl	.L125
 864:Drivers/STM32G0xx_HAL_Driver/Src/stm32g0xx_hal_rcc.c ****     {
 1480              		.loc 1 864 0
 1481 0070 6368     		ldr	r3, [r4, #4]
 1482 0072 012B     		cmp	r3, #1
 1483 0074 04D1     		bne	.L126
 867:Drivers/STM32G0xx_HAL_Driver/Src/stm32g0xx_hal_rcc.c ****       {
 1484              		.loc 1 867 0
 1485 0076 434A     		ldr	r2, .L146+8
 1486 0078 1268     		ldr	r2, [r2]
 1487 007a 9203     		lsls	r2, r2, #14
 1488 007c 19D4     		bmi	.L127
 1489 007e 6EE0     		b	.L139
 1490              	.L126:
 873:Drivers/STM32G0xx_HAL_Driver/Src/stm32g0xx_hal_rcc.c ****     {
 1491              		.loc 1 873 0
 1492 0080 022B     		cmp	r3, #2
 1493 0082 04D1     		bne	.L128
 876:Drivers/STM32G0xx_HAL_Driver/Src/stm32g0xx_hal_rcc.c ****       {
 1494              		.loc 1 876 0
 1495 0084 3F4A     		ldr	r2, .L146+8
 1496 0086 1268     		ldr	r2, [r2]
 1497 0088 9201     		lsls	r2, r2, #6
 1498 008a 12D4     		bmi	.L127
 1499 008c 69E0     		b	.L140
ARM GAS  /tmp/ccETUiog.s 			page 49


 1500              	.L128:
 882:Drivers/STM32G0xx_HAL_Driver/Src/stm32g0xx_hal_rcc.c ****     {
 1501              		.loc 1 882 0
 1502 008e 002B     		cmp	r3, #0
 1503 0090 04D1     		bne	.L129
 885:Drivers/STM32G0xx_HAL_Driver/Src/stm32g0xx_hal_rcc.c ****       {
 1504              		.loc 1 885 0
 1505 0092 3C4A     		ldr	r2, .L146+8
 1506 0094 1268     		ldr	r2, [r2]
 1507 0096 5205     		lsls	r2, r2, #21
 1508 0098 0BD4     		bmi	.L127
 1509 009a 64E0     		b	.L141
 1510              	.L129:
 891:Drivers/STM32G0xx_HAL_Driver/Src/stm32g0xx_hal_rcc.c ****     {
 1511              		.loc 1 891 0
 1512 009c 032B     		cmp	r3, #3
 1513 009e 04D1     		bne	.L130
 894:Drivers/STM32G0xx_HAL_Driver/Src/stm32g0xx_hal_rcc.c ****       {
 1514              		.loc 1 894 0
 1515 00a0 384A     		ldr	r2, .L146+8
 1516 00a2 126E     		ldr	r2, [r2, #96]
 1517 00a4 9207     		lsls	r2, r2, #30
 1518 00a6 04D4     		bmi	.L127
 1519 00a8 5FE0     		b	.L142
 1520              	.L130:
 903:Drivers/STM32G0xx_HAL_Driver/Src/stm32g0xx_hal_rcc.c ****       {
 1521              		.loc 1 903 0
 1522 00aa 364A     		ldr	r2, .L146+8
 1523 00ac D26D     		ldr	r2, [r2, #92]
 1524 00ae 9207     		lsls	r2, r2, #30
 1525 00b0 5DD5     		bpl	.L143
 1526              	.L127:
 908:Drivers/STM32G0xx_HAL_Driver/Src/stm32g0xx_hal_rcc.c **** 
 1527              		.loc 1 908 0
 1528 00b2 3449     		ldr	r1, .L146+8
 1529 00b4 8A68     		ldr	r2, [r1, #8]
 1530 00b6 0720     		movs	r0, #7
 1531 00b8 8243     		bics	r2, r0
 1532 00ba 1343     		orrs	r3, r2
 1533 00bc 8B60     		str	r3, [r1, #8]
 911:Drivers/STM32G0xx_HAL_Driver/Src/stm32g0xx_hal_rcc.c **** 
 1534              		.loc 1 911 0
 1535 00be FFF7FEFF 		bl	HAL_GetTick
 1536              	.LVL142:
 1537 00c2 0600     		movs	r6, r0
 1538              	.LVL143:
 913:Drivers/STM32G0xx_HAL_Driver/Src/stm32g0xx_hal_rcc.c ****     {
 1539              		.loc 1 913 0
 1540 00c4 05E0     		b	.L131
 1541              	.LVL144:
 1542              	.L132:
 915:Drivers/STM32G0xx_HAL_Driver/Src/stm32g0xx_hal_rcc.c ****       {
 1543              		.loc 1 915 0
 1544 00c6 FFF7FEFF 		bl	HAL_GetTick
 1545              	.LVL145:
 1546 00ca 801B     		subs	r0, r0, r6
 1547 00cc 2C4B     		ldr	r3, .L146+4
ARM GAS  /tmp/ccETUiog.s 			page 50


 1548 00ce 9842     		cmp	r0, r3
 1549 00d0 4FD8     		bhi	.L144
 1550              	.L131:
 913:Drivers/STM32G0xx_HAL_Driver/Src/stm32g0xx_hal_rcc.c ****     {
 1551              		.loc 1 913 0
 1552 00d2 2C4B     		ldr	r3, .L146+8
 1553 00d4 9B68     		ldr	r3, [r3, #8]
 1554 00d6 3822     		movs	r2, #56
 1555 00d8 1A40     		ands	r2, r3
 1556 00da 6368     		ldr	r3, [r4, #4]
 1557 00dc DB00     		lsls	r3, r3, #3
 1558 00de 9A42     		cmp	r2, r3
 1559 00e0 F1D1     		bne	.L132
 1560              	.LVL146:
 1561              	.L125:
 923:Drivers/STM32G0xx_HAL_Driver/Src/stm32g0xx_hal_rcc.c ****   {
 1562              		.loc 1 923 0
 1563 00e2 264B     		ldr	r3, .L146
 1564 00e4 1B68     		ldr	r3, [r3]
 1565 00e6 0722     		movs	r2, #7
 1566 00e8 1340     		ands	r3, r2
 1567 00ea 9D42     		cmp	r5, r3
 1568 00ec 15D2     		bcs	.L133
 926:Drivers/STM32G0xx_HAL_Driver/Src/stm32g0xx_hal_rcc.c **** 
 1569              		.loc 1 926 0
 1570 00ee 234A     		ldr	r2, .L146
 1571 00f0 1368     		ldr	r3, [r2]
 1572 00f2 0721     		movs	r1, #7
 1573 00f4 8B43     		bics	r3, r1
 1574 00f6 2B43     		orrs	r3, r5
 1575 00f8 1360     		str	r3, [r2]
 930:Drivers/STM32G0xx_HAL_Driver/Src/stm32g0xx_hal_rcc.c **** 
 1576              		.loc 1 930 0
 1577 00fa FFF7FEFF 		bl	HAL_GetTick
 1578              	.LVL147:
 1579 00fe 0600     		movs	r6, r0
 1580              	.LVL148:
 932:Drivers/STM32G0xx_HAL_Driver/Src/stm32g0xx_hal_rcc.c ****     {
 1581              		.loc 1 932 0
 1582 0100 05E0     		b	.L134
 1583              	.LVL149:
 1584              	.L135:
 934:Drivers/STM32G0xx_HAL_Driver/Src/stm32g0xx_hal_rcc.c ****       {
 1585              		.loc 1 934 0
 1586 0102 FFF7FEFF 		bl	HAL_GetTick
 1587              	.LVL150:
 1588 0106 801B     		subs	r0, r0, r6
 1589 0108 1D4B     		ldr	r3, .L146+4
 1590 010a 9842     		cmp	r0, r3
 1591 010c 33D8     		bhi	.L145
 1592              	.L134:
 932:Drivers/STM32G0xx_HAL_Driver/Src/stm32g0xx_hal_rcc.c ****     {
 1593              		.loc 1 932 0
 1594 010e 1B4B     		ldr	r3, .L146
 1595 0110 1B68     		ldr	r3, [r3]
 1596 0112 0722     		movs	r2, #7
 1597 0114 1340     		ands	r3, r2
ARM GAS  /tmp/ccETUiog.s 			page 51


 1598 0116 9D42     		cmp	r5, r3
 1599 0118 F3D1     		bne	.L135
 1600              	.LVL151:
 1601              	.L133:
 942:Drivers/STM32G0xx_HAL_Driver/Src/stm32g0xx_hal_rcc.c ****   {
 1602              		.loc 1 942 0
 1603 011a 2368     		ldr	r3, [r4]
 1604 011c 5B07     		lsls	r3, r3, #29
 1605 011e 06D5     		bpl	.L136
 945:Drivers/STM32G0xx_HAL_Driver/Src/stm32g0xx_hal_rcc.c ****   }
 1606              		.loc 1 945 0
 1607 0120 1849     		ldr	r1, .L146+8
 1608 0122 8A68     		ldr	r2, [r1, #8]
 1609 0124 194B     		ldr	r3, .L146+16
 1610 0126 1340     		ands	r3, r2
 1611 0128 E268     		ldr	r2, [r4, #12]
 1612 012a 1343     		orrs	r3, r2
 1613 012c 8B60     		str	r3, [r1, #8]
 1614              	.L136:
 949:Drivers/STM32G0xx_HAL_Driver/Src/stm32g0xx_hal_rcc.c **** 
 1615              		.loc 1 949 0
 1616 012e FFF7FEFF 		bl	HAL_RCC_GetSysClockFreq
 1617              	.LVL152:
 1618 0132 144B     		ldr	r3, .L146+8
 1619 0134 9B68     		ldr	r3, [r3, #8]
 1620 0136 1B0A     		lsrs	r3, r3, #8
 1621 0138 0F22     		movs	r2, #15
 1622 013a 1340     		ands	r3, r2
 1623 013c 9B00     		lsls	r3, r3, #2
 1624 013e 144A     		ldr	r2, .L146+20
 1625 0140 9B58     		ldr	r3, [r3, r2]
 1626 0142 1F22     		movs	r2, #31
 1627 0144 1340     		ands	r3, r2
 1628 0146 D840     		lsrs	r0, r0, r3
 1629 0148 124B     		ldr	r3, .L146+24
 1630 014a 1860     		str	r0, [r3]
 952:Drivers/STM32G0xx_HAL_Driver/Src/stm32g0xx_hal_rcc.c **** }
 1631              		.loc 1 952 0
 1632 014c 124B     		ldr	r3, .L146+28
 1633 014e 1868     		ldr	r0, [r3]
 1634 0150 FFF7FEFF 		bl	HAL_InitTick
 1635              	.LVL153:
 1636 0154 10E0     		b	.L119
 1637              	.LVL154:
 1638              	.L137:
 813:Drivers/STM32G0xx_HAL_Driver/Src/stm32g0xx_hal_rcc.c ****   }
 1639              		.loc 1 813 0
 1640 0156 0120     		movs	r0, #1
 1641              	.LVL155:
 1642 0158 0EE0     		b	.L119
 1643              	.LVL156:
 1644              	.L138:
 838:Drivers/STM32G0xx_HAL_Driver/Src/stm32g0xx_hal_rcc.c ****       }
 1645              		.loc 1 838 0
 1646 015a 0320     		movs	r0, #3
 1647 015c 0CE0     		b	.L119
 1648              	.LVL157:
ARM GAS  /tmp/ccETUiog.s 			page 52


 1649              	.L139:
 869:Drivers/STM32G0xx_HAL_Driver/Src/stm32g0xx_hal_rcc.c ****       }
 1650              		.loc 1 869 0
 1651 015e 0120     		movs	r0, #1
 1652 0160 0AE0     		b	.L119
 1653              	.L140:
 878:Drivers/STM32G0xx_HAL_Driver/Src/stm32g0xx_hal_rcc.c ****       }
 1654              		.loc 1 878 0
 1655 0162 0120     		movs	r0, #1
 1656 0164 08E0     		b	.L119
 1657              	.L141:
 887:Drivers/STM32G0xx_HAL_Driver/Src/stm32g0xx_hal_rcc.c ****       }
 1658              		.loc 1 887 0
 1659 0166 0120     		movs	r0, #1
 1660 0168 06E0     		b	.L119
 1661              	.L142:
 896:Drivers/STM32G0xx_HAL_Driver/Src/stm32g0xx_hal_rcc.c ****       }
 1662              		.loc 1 896 0
 1663 016a 0120     		movs	r0, #1
 1664 016c 04E0     		b	.L119
 1665              	.L143:
 905:Drivers/STM32G0xx_HAL_Driver/Src/stm32g0xx_hal_rcc.c ****       }
 1666              		.loc 1 905 0
 1667 016e 0120     		movs	r0, #1
 1668 0170 02E0     		b	.L119
 1669              	.LVL158:
 1670              	.L144:
 917:Drivers/STM32G0xx_HAL_Driver/Src/stm32g0xx_hal_rcc.c ****       }
 1671              		.loc 1 917 0
 1672 0172 0320     		movs	r0, #3
 1673 0174 00E0     		b	.L119
 1674              	.L145:
 936:Drivers/STM32G0xx_HAL_Driver/Src/stm32g0xx_hal_rcc.c ****       }
 1675              		.loc 1 936 0
 1676 0176 0320     		movs	r0, #3
 1677              	.LVL159:
 1678              	.L119:
 953:Drivers/STM32G0xx_HAL_Driver/Src/stm32g0xx_hal_rcc.c **** 
 1679              		.loc 1 953 0
 1680              		@ sp needed
 1681              	.LVL160:
 1682              	.LVL161:
 1683 0178 70BD     		pop	{r4, r5, r6, pc}
 1684              	.L147:
 1685 017a C046     		.align	2
 1686              	.L146:
 1687 017c 00200240 		.word	1073881088
 1688 0180 88130000 		.word	5000
 1689 0184 00100240 		.word	1073876992
 1690 0188 FFF0FFFF 		.word	-3841
 1691 018c FF8FFFFF 		.word	-28673
 1692 0190 00000000 		.word	AHBPrescTable
 1693 0194 00000000 		.word	SystemCoreClock
 1694 0198 00000000 		.word	uwTickPrio
 1695              		.cfi_endproc
 1696              	.LFE312:
 1698              		.section	.text.HAL_RCC_GetHCLKFreq,"ax",%progbits
ARM GAS  /tmp/ccETUiog.s 			page 53


 1699              		.align	2
 1700              		.global	HAL_RCC_GetHCLKFreq
 1701              		.code	16
 1702              		.thumb_func
 1704              	HAL_RCC_GetHCLKFreq:
 1705              	.LFB315:
1172:Drivers/STM32G0xx_HAL_Driver/Src/stm32g0xx_hal_rcc.c **** 
1173:Drivers/STM32G0xx_HAL_Driver/Src/stm32g0xx_hal_rcc.c **** /**
1174:Drivers/STM32G0xx_HAL_Driver/Src/stm32g0xx_hal_rcc.c ****   * @brief  Return the HCLK frequency.
1175:Drivers/STM32G0xx_HAL_Driver/Src/stm32g0xx_hal_rcc.c ****   * @note   Each time HCLK changes, this function must be called to update the
1176:Drivers/STM32G0xx_HAL_Driver/Src/stm32g0xx_hal_rcc.c ****   *         right HCLK value. Otherwise, any configuration based on this function will be incorrect
1177:Drivers/STM32G0xx_HAL_Driver/Src/stm32g0xx_hal_rcc.c ****   *
1178:Drivers/STM32G0xx_HAL_Driver/Src/stm32g0xx_hal_rcc.c ****   * @note   The SystemCoreClock CMSIS variable is used to store System Clock Frequency.
1179:Drivers/STM32G0xx_HAL_Driver/Src/stm32g0xx_hal_rcc.c ****   * @retval HCLK frequency in Hz
1180:Drivers/STM32G0xx_HAL_Driver/Src/stm32g0xx_hal_rcc.c ****   */
1181:Drivers/STM32G0xx_HAL_Driver/Src/stm32g0xx_hal_rcc.c **** uint32_t HAL_RCC_GetHCLKFreq(void)
1182:Drivers/STM32G0xx_HAL_Driver/Src/stm32g0xx_hal_rcc.c **** {
 1706              		.loc 1 1182 0
 1707              		.cfi_startproc
 1708              		@ args = 0, pretend = 0, frame = 0
 1709              		@ frame_needed = 0, uses_anonymous_args = 0
 1710              		@ link register save eliminated.
1183:Drivers/STM32G0xx_HAL_Driver/Src/stm32g0xx_hal_rcc.c ****   return SystemCoreClock;
 1711              		.loc 1 1183 0
 1712 0000 014B     		ldr	r3, .L149
 1713 0002 1868     		ldr	r0, [r3]
1184:Drivers/STM32G0xx_HAL_Driver/Src/stm32g0xx_hal_rcc.c **** }
 1714              		.loc 1 1184 0
 1715              		@ sp needed
 1716 0004 7047     		bx	lr
 1717              	.L150:
 1718 0006 C046     		.align	2
 1719              	.L149:
 1720 0008 00000000 		.word	SystemCoreClock
 1721              		.cfi_endproc
 1722              	.LFE315:
 1724              		.section	.text.HAL_RCC_GetPCLK1Freq,"ax",%progbits
 1725              		.align	2
 1726              		.global	HAL_RCC_GetPCLK1Freq
 1727              		.code	16
 1728              		.thumb_func
 1730              	HAL_RCC_GetPCLK1Freq:
 1731              	.LFB316:
1185:Drivers/STM32G0xx_HAL_Driver/Src/stm32g0xx_hal_rcc.c **** 
1186:Drivers/STM32G0xx_HAL_Driver/Src/stm32g0xx_hal_rcc.c **** /**
1187:Drivers/STM32G0xx_HAL_Driver/Src/stm32g0xx_hal_rcc.c ****   * @brief  Return the PCLK1 frequency.
1188:Drivers/STM32G0xx_HAL_Driver/Src/stm32g0xx_hal_rcc.c ****   * @note   Each time PCLK1 changes, this function must be called to update the
1189:Drivers/STM32G0xx_HAL_Driver/Src/stm32g0xx_hal_rcc.c ****   *         right PCLK1 value. Otherwise, any configuration based on this function will be incorrec
1190:Drivers/STM32G0xx_HAL_Driver/Src/stm32g0xx_hal_rcc.c ****   * @retval PCLK1 frequency in Hz
1191:Drivers/STM32G0xx_HAL_Driver/Src/stm32g0xx_hal_rcc.c ****   */
1192:Drivers/STM32G0xx_HAL_Driver/Src/stm32g0xx_hal_rcc.c **** uint32_t HAL_RCC_GetPCLK1Freq(void)
1193:Drivers/STM32G0xx_HAL_Driver/Src/stm32g0xx_hal_rcc.c **** {
 1732              		.loc 1 1193 0
 1733              		.cfi_startproc
 1734              		@ args = 0, pretend = 0, frame = 0
 1735              		@ frame_needed = 0, uses_anonymous_args = 0
 1736 0000 10B5     		push	{r4, lr}
ARM GAS  /tmp/ccETUiog.s 			page 54


 1737              	.LCFI7:
 1738              		.cfi_def_cfa_offset 8
 1739              		.cfi_offset 4, -8
 1740              		.cfi_offset 14, -4
1194:Drivers/STM32G0xx_HAL_Driver/Src/stm32g0xx_hal_rcc.c ****   /* Get HCLK source and Compute PCLK1 frequency ---------------------------*/
1195:Drivers/STM32G0xx_HAL_Driver/Src/stm32g0xx_hal_rcc.c ****   return ((uint32_t)(__LL_RCC_CALC_PCLK1_FREQ(HAL_RCC_GetHCLKFreq(), LL_RCC_GetAPB1Prescaler())));
 1741              		.loc 1 1195 0
 1742 0002 FFF7FEFF 		bl	HAL_RCC_GetHCLKFreq
 1743              	.LVL162:
 1744              	.LBB8:
 1745              	.LBB9:
 1746              		.file 2 "Drivers/STM32G0xx_HAL_Driver/Inc/stm32g0xx_ll_rcc.h"
   1:Drivers/STM32G0xx_HAL_Driver/Inc/stm32g0xx_ll_rcc.h **** /**
   2:Drivers/STM32G0xx_HAL_Driver/Inc/stm32g0xx_ll_rcc.h ****   ******************************************************************************
   3:Drivers/STM32G0xx_HAL_Driver/Inc/stm32g0xx_ll_rcc.h ****   * @file    stm32g0xx_ll_rcc.h
   4:Drivers/STM32G0xx_HAL_Driver/Inc/stm32g0xx_ll_rcc.h ****   * @author  MCD Application Team
   5:Drivers/STM32G0xx_HAL_Driver/Inc/stm32g0xx_ll_rcc.h ****   * @brief   Header file of RCC LL module.
   6:Drivers/STM32G0xx_HAL_Driver/Inc/stm32g0xx_ll_rcc.h ****   ******************************************************************************
   7:Drivers/STM32G0xx_HAL_Driver/Inc/stm32g0xx_ll_rcc.h ****   * @attention
   8:Drivers/STM32G0xx_HAL_Driver/Inc/stm32g0xx_ll_rcc.h ****   *
   9:Drivers/STM32G0xx_HAL_Driver/Inc/stm32g0xx_ll_rcc.h ****   * Copyright (c) 2018 STMicroelectronics.
  10:Drivers/STM32G0xx_HAL_Driver/Inc/stm32g0xx_ll_rcc.h ****   * All rights reserved.
  11:Drivers/STM32G0xx_HAL_Driver/Inc/stm32g0xx_ll_rcc.h ****   *
  12:Drivers/STM32G0xx_HAL_Driver/Inc/stm32g0xx_ll_rcc.h ****   * This software is licensed under terms that can be found in the LICENSE file in
  13:Drivers/STM32G0xx_HAL_Driver/Inc/stm32g0xx_ll_rcc.h ****   * the root directory of this software component.
  14:Drivers/STM32G0xx_HAL_Driver/Inc/stm32g0xx_ll_rcc.h ****   * If no LICENSE file comes with this software, it is provided AS-IS.
  15:Drivers/STM32G0xx_HAL_Driver/Inc/stm32g0xx_ll_rcc.h ****   ******************************************************************************
  16:Drivers/STM32G0xx_HAL_Driver/Inc/stm32g0xx_ll_rcc.h ****   */
  17:Drivers/STM32G0xx_HAL_Driver/Inc/stm32g0xx_ll_rcc.h **** 
  18:Drivers/STM32G0xx_HAL_Driver/Inc/stm32g0xx_ll_rcc.h **** /* Define to prevent recursive inclusion -------------------------------------*/
  19:Drivers/STM32G0xx_HAL_Driver/Inc/stm32g0xx_ll_rcc.h **** #ifndef STM32G0xx_LL_RCC_H
  20:Drivers/STM32G0xx_HAL_Driver/Inc/stm32g0xx_ll_rcc.h **** #define STM32G0xx_LL_RCC_H
  21:Drivers/STM32G0xx_HAL_Driver/Inc/stm32g0xx_ll_rcc.h **** 
  22:Drivers/STM32G0xx_HAL_Driver/Inc/stm32g0xx_ll_rcc.h **** #ifdef __cplusplus
  23:Drivers/STM32G0xx_HAL_Driver/Inc/stm32g0xx_ll_rcc.h **** extern "C" {
  24:Drivers/STM32G0xx_HAL_Driver/Inc/stm32g0xx_ll_rcc.h **** #endif
  25:Drivers/STM32G0xx_HAL_Driver/Inc/stm32g0xx_ll_rcc.h **** 
  26:Drivers/STM32G0xx_HAL_Driver/Inc/stm32g0xx_ll_rcc.h **** /* Includes ------------------------------------------------------------------*/
  27:Drivers/STM32G0xx_HAL_Driver/Inc/stm32g0xx_ll_rcc.h **** #include "stm32g0xx.h"
  28:Drivers/STM32G0xx_HAL_Driver/Inc/stm32g0xx_ll_rcc.h **** 
  29:Drivers/STM32G0xx_HAL_Driver/Inc/stm32g0xx_ll_rcc.h **** /** @addtogroup STM32G0xx_LL_Driver
  30:Drivers/STM32G0xx_HAL_Driver/Inc/stm32g0xx_ll_rcc.h ****   * @{
  31:Drivers/STM32G0xx_HAL_Driver/Inc/stm32g0xx_ll_rcc.h ****   */
  32:Drivers/STM32G0xx_HAL_Driver/Inc/stm32g0xx_ll_rcc.h **** 
  33:Drivers/STM32G0xx_HAL_Driver/Inc/stm32g0xx_ll_rcc.h **** #if defined(RCC)
  34:Drivers/STM32G0xx_HAL_Driver/Inc/stm32g0xx_ll_rcc.h **** 
  35:Drivers/STM32G0xx_HAL_Driver/Inc/stm32g0xx_ll_rcc.h **** /** @defgroup RCC_LL RCC
  36:Drivers/STM32G0xx_HAL_Driver/Inc/stm32g0xx_ll_rcc.h ****   * @{
  37:Drivers/STM32G0xx_HAL_Driver/Inc/stm32g0xx_ll_rcc.h ****   */
  38:Drivers/STM32G0xx_HAL_Driver/Inc/stm32g0xx_ll_rcc.h **** 
  39:Drivers/STM32G0xx_HAL_Driver/Inc/stm32g0xx_ll_rcc.h **** /* Private types -------------------------------------------------------------*/
  40:Drivers/STM32G0xx_HAL_Driver/Inc/stm32g0xx_ll_rcc.h **** /* Private variables ---------------------------------------------------------*/
  41:Drivers/STM32G0xx_HAL_Driver/Inc/stm32g0xx_ll_rcc.h **** /** @defgroup RCC_LL_Private_Variables RCC Private Variables
  42:Drivers/STM32G0xx_HAL_Driver/Inc/stm32g0xx_ll_rcc.h ****   * @{
  43:Drivers/STM32G0xx_HAL_Driver/Inc/stm32g0xx_ll_rcc.h ****   */
  44:Drivers/STM32G0xx_HAL_Driver/Inc/stm32g0xx_ll_rcc.h **** 
  45:Drivers/STM32G0xx_HAL_Driver/Inc/stm32g0xx_ll_rcc.h **** 
ARM GAS  /tmp/ccETUiog.s 			page 55


  46:Drivers/STM32G0xx_HAL_Driver/Inc/stm32g0xx_ll_rcc.h **** /**
  47:Drivers/STM32G0xx_HAL_Driver/Inc/stm32g0xx_ll_rcc.h ****   * @}
  48:Drivers/STM32G0xx_HAL_Driver/Inc/stm32g0xx_ll_rcc.h ****   */
  49:Drivers/STM32G0xx_HAL_Driver/Inc/stm32g0xx_ll_rcc.h **** 
  50:Drivers/STM32G0xx_HAL_Driver/Inc/stm32g0xx_ll_rcc.h **** /* Private constants ---------------------------------------------------------*/
  51:Drivers/STM32G0xx_HAL_Driver/Inc/stm32g0xx_ll_rcc.h **** /* Private macros ------------------------------------------------------------*/
  52:Drivers/STM32G0xx_HAL_Driver/Inc/stm32g0xx_ll_rcc.h **** #if defined(USE_FULL_LL_DRIVER)
  53:Drivers/STM32G0xx_HAL_Driver/Inc/stm32g0xx_ll_rcc.h **** /** @defgroup RCC_LL_Private_Macros RCC Private Macros
  54:Drivers/STM32G0xx_HAL_Driver/Inc/stm32g0xx_ll_rcc.h ****   * @{
  55:Drivers/STM32G0xx_HAL_Driver/Inc/stm32g0xx_ll_rcc.h ****   */
  56:Drivers/STM32G0xx_HAL_Driver/Inc/stm32g0xx_ll_rcc.h **** /**
  57:Drivers/STM32G0xx_HAL_Driver/Inc/stm32g0xx_ll_rcc.h ****   * @}
  58:Drivers/STM32G0xx_HAL_Driver/Inc/stm32g0xx_ll_rcc.h ****   */
  59:Drivers/STM32G0xx_HAL_Driver/Inc/stm32g0xx_ll_rcc.h **** #endif /*USE_FULL_LL_DRIVER*/
  60:Drivers/STM32G0xx_HAL_Driver/Inc/stm32g0xx_ll_rcc.h **** 
  61:Drivers/STM32G0xx_HAL_Driver/Inc/stm32g0xx_ll_rcc.h **** /* Exported types ------------------------------------------------------------*/
  62:Drivers/STM32G0xx_HAL_Driver/Inc/stm32g0xx_ll_rcc.h **** #if defined(USE_FULL_LL_DRIVER)
  63:Drivers/STM32G0xx_HAL_Driver/Inc/stm32g0xx_ll_rcc.h **** /** @defgroup RCC_LL_Exported_Types RCC Exported Types
  64:Drivers/STM32G0xx_HAL_Driver/Inc/stm32g0xx_ll_rcc.h ****   * @{
  65:Drivers/STM32G0xx_HAL_Driver/Inc/stm32g0xx_ll_rcc.h ****   */
  66:Drivers/STM32G0xx_HAL_Driver/Inc/stm32g0xx_ll_rcc.h **** 
  67:Drivers/STM32G0xx_HAL_Driver/Inc/stm32g0xx_ll_rcc.h **** /** @defgroup LL_ES_CLOCK_FREQ Clocks Frequency Structure
  68:Drivers/STM32G0xx_HAL_Driver/Inc/stm32g0xx_ll_rcc.h ****   * @{
  69:Drivers/STM32G0xx_HAL_Driver/Inc/stm32g0xx_ll_rcc.h ****   */
  70:Drivers/STM32G0xx_HAL_Driver/Inc/stm32g0xx_ll_rcc.h **** 
  71:Drivers/STM32G0xx_HAL_Driver/Inc/stm32g0xx_ll_rcc.h **** /**
  72:Drivers/STM32G0xx_HAL_Driver/Inc/stm32g0xx_ll_rcc.h ****   * @brief  RCC Clocks Frequency Structure
  73:Drivers/STM32G0xx_HAL_Driver/Inc/stm32g0xx_ll_rcc.h ****   */
  74:Drivers/STM32G0xx_HAL_Driver/Inc/stm32g0xx_ll_rcc.h **** typedef struct
  75:Drivers/STM32G0xx_HAL_Driver/Inc/stm32g0xx_ll_rcc.h **** {
  76:Drivers/STM32G0xx_HAL_Driver/Inc/stm32g0xx_ll_rcc.h ****   uint32_t SYSCLK_Frequency;        /*!< SYSCLK clock frequency */
  77:Drivers/STM32G0xx_HAL_Driver/Inc/stm32g0xx_ll_rcc.h ****   uint32_t HCLK_Frequency;          /*!< HCLK clock frequency */
  78:Drivers/STM32G0xx_HAL_Driver/Inc/stm32g0xx_ll_rcc.h ****   uint32_t PCLK1_Frequency;         /*!< PCLK1 clock frequency */
  79:Drivers/STM32G0xx_HAL_Driver/Inc/stm32g0xx_ll_rcc.h **** } LL_RCC_ClocksTypeDef;
  80:Drivers/STM32G0xx_HAL_Driver/Inc/stm32g0xx_ll_rcc.h **** 
  81:Drivers/STM32G0xx_HAL_Driver/Inc/stm32g0xx_ll_rcc.h **** /**
  82:Drivers/STM32G0xx_HAL_Driver/Inc/stm32g0xx_ll_rcc.h ****   * @}
  83:Drivers/STM32G0xx_HAL_Driver/Inc/stm32g0xx_ll_rcc.h ****   */
  84:Drivers/STM32G0xx_HAL_Driver/Inc/stm32g0xx_ll_rcc.h **** 
  85:Drivers/STM32G0xx_HAL_Driver/Inc/stm32g0xx_ll_rcc.h **** /**
  86:Drivers/STM32G0xx_HAL_Driver/Inc/stm32g0xx_ll_rcc.h ****   * @}
  87:Drivers/STM32G0xx_HAL_Driver/Inc/stm32g0xx_ll_rcc.h ****   */
  88:Drivers/STM32G0xx_HAL_Driver/Inc/stm32g0xx_ll_rcc.h **** #endif /* USE_FULL_LL_DRIVER */
  89:Drivers/STM32G0xx_HAL_Driver/Inc/stm32g0xx_ll_rcc.h **** 
  90:Drivers/STM32G0xx_HAL_Driver/Inc/stm32g0xx_ll_rcc.h **** /* Exported constants --------------------------------------------------------*/
  91:Drivers/STM32G0xx_HAL_Driver/Inc/stm32g0xx_ll_rcc.h **** /** @defgroup RCC_LL_Exported_Constants RCC Exported Constants
  92:Drivers/STM32G0xx_HAL_Driver/Inc/stm32g0xx_ll_rcc.h ****   * @{
  93:Drivers/STM32G0xx_HAL_Driver/Inc/stm32g0xx_ll_rcc.h ****   */
  94:Drivers/STM32G0xx_HAL_Driver/Inc/stm32g0xx_ll_rcc.h **** 
  95:Drivers/STM32G0xx_HAL_Driver/Inc/stm32g0xx_ll_rcc.h **** /** @defgroup RCC_LL_EC_OSC_VALUES Oscillator Values adaptation
  96:Drivers/STM32G0xx_HAL_Driver/Inc/stm32g0xx_ll_rcc.h ****   * @brief    Defines used to adapt values of different oscillators
  97:Drivers/STM32G0xx_HAL_Driver/Inc/stm32g0xx_ll_rcc.h ****   * @note     These values could be modified in the user environment according to
  98:Drivers/STM32G0xx_HAL_Driver/Inc/stm32g0xx_ll_rcc.h ****   *           HW set-up.
  99:Drivers/STM32G0xx_HAL_Driver/Inc/stm32g0xx_ll_rcc.h ****   * @{
 100:Drivers/STM32G0xx_HAL_Driver/Inc/stm32g0xx_ll_rcc.h ****   */
 101:Drivers/STM32G0xx_HAL_Driver/Inc/stm32g0xx_ll_rcc.h **** #if !defined  (HSE_VALUE)
 102:Drivers/STM32G0xx_HAL_Driver/Inc/stm32g0xx_ll_rcc.h **** #define HSE_VALUE    8000000U   /*!< Value of the HSE oscillator in Hz */
ARM GAS  /tmp/ccETUiog.s 			page 56


 103:Drivers/STM32G0xx_HAL_Driver/Inc/stm32g0xx_ll_rcc.h **** #endif /* HSE_VALUE */
 104:Drivers/STM32G0xx_HAL_Driver/Inc/stm32g0xx_ll_rcc.h **** 
 105:Drivers/STM32G0xx_HAL_Driver/Inc/stm32g0xx_ll_rcc.h **** #if !defined  (HSI_VALUE)
 106:Drivers/STM32G0xx_HAL_Driver/Inc/stm32g0xx_ll_rcc.h **** #define HSI_VALUE    16000000U  /*!< Value of the HSI oscillator in Hz */
 107:Drivers/STM32G0xx_HAL_Driver/Inc/stm32g0xx_ll_rcc.h **** #endif /* HSI_VALUE */
 108:Drivers/STM32G0xx_HAL_Driver/Inc/stm32g0xx_ll_rcc.h **** 
 109:Drivers/STM32G0xx_HAL_Driver/Inc/stm32g0xx_ll_rcc.h **** #if !defined  (LSE_VALUE)
 110:Drivers/STM32G0xx_HAL_Driver/Inc/stm32g0xx_ll_rcc.h **** #define LSE_VALUE    32768U     /*!< Value of the LSE oscillator in Hz */
 111:Drivers/STM32G0xx_HAL_Driver/Inc/stm32g0xx_ll_rcc.h **** #endif /* LSE_VALUE */
 112:Drivers/STM32G0xx_HAL_Driver/Inc/stm32g0xx_ll_rcc.h **** 
 113:Drivers/STM32G0xx_HAL_Driver/Inc/stm32g0xx_ll_rcc.h **** #if !defined  (LSI_VALUE)
 114:Drivers/STM32G0xx_HAL_Driver/Inc/stm32g0xx_ll_rcc.h **** #define LSI_VALUE    32000U     /*!< Value of the LSI oscillator in Hz */
 115:Drivers/STM32G0xx_HAL_Driver/Inc/stm32g0xx_ll_rcc.h **** #endif /* LSI_VALUE */
 116:Drivers/STM32G0xx_HAL_Driver/Inc/stm32g0xx_ll_rcc.h **** #if !defined  (EXTERNAL_CLOCK_VALUE)
 117:Drivers/STM32G0xx_HAL_Driver/Inc/stm32g0xx_ll_rcc.h **** #define EXTERNAL_CLOCK_VALUE    48000000U /*!< Value of the I2S_CKIN external oscillator in Hz */
 118:Drivers/STM32G0xx_HAL_Driver/Inc/stm32g0xx_ll_rcc.h **** #endif /* EXTERNAL_CLOCK_VALUE */
 119:Drivers/STM32G0xx_HAL_Driver/Inc/stm32g0xx_ll_rcc.h **** 
 120:Drivers/STM32G0xx_HAL_Driver/Inc/stm32g0xx_ll_rcc.h **** #if defined(RCC_HSI48_SUPPORT)
 121:Drivers/STM32G0xx_HAL_Driver/Inc/stm32g0xx_ll_rcc.h **** #if !defined  (HSI48_VALUE)
 122:Drivers/STM32G0xx_HAL_Driver/Inc/stm32g0xx_ll_rcc.h **** #define HSI48_VALUE  48000000U  /*!< Value of the HSI48 oscillator in Hz */
 123:Drivers/STM32G0xx_HAL_Driver/Inc/stm32g0xx_ll_rcc.h **** #endif /* HSI48_VALUE */
 124:Drivers/STM32G0xx_HAL_Driver/Inc/stm32g0xx_ll_rcc.h **** #endif /* RCC_HSI48_SUPPORT */
 125:Drivers/STM32G0xx_HAL_Driver/Inc/stm32g0xx_ll_rcc.h **** /**
 126:Drivers/STM32G0xx_HAL_Driver/Inc/stm32g0xx_ll_rcc.h ****   * @}
 127:Drivers/STM32G0xx_HAL_Driver/Inc/stm32g0xx_ll_rcc.h ****   */
 128:Drivers/STM32G0xx_HAL_Driver/Inc/stm32g0xx_ll_rcc.h **** 
 129:Drivers/STM32G0xx_HAL_Driver/Inc/stm32g0xx_ll_rcc.h **** /** @defgroup RCC_LL_EC_CLEAR_FLAG Clear Flags Defines
 130:Drivers/STM32G0xx_HAL_Driver/Inc/stm32g0xx_ll_rcc.h ****   * @brief    Flags defines which can be used with LL_RCC_WriteReg function
 131:Drivers/STM32G0xx_HAL_Driver/Inc/stm32g0xx_ll_rcc.h ****   * @{
 132:Drivers/STM32G0xx_HAL_Driver/Inc/stm32g0xx_ll_rcc.h ****   */
 133:Drivers/STM32G0xx_HAL_Driver/Inc/stm32g0xx_ll_rcc.h **** #define LL_RCC_CICR_LSIRDYC                RCC_CICR_LSIRDYC     /*!< LSI Ready Interrupt Clear */
 134:Drivers/STM32G0xx_HAL_Driver/Inc/stm32g0xx_ll_rcc.h **** #define LL_RCC_CICR_LSERDYC                RCC_CICR_LSERDYC     /*!< LSE Ready Interrupt Clear */
 135:Drivers/STM32G0xx_HAL_Driver/Inc/stm32g0xx_ll_rcc.h **** #define LL_RCC_CICR_HSIRDYC                RCC_CICR_HSIRDYC     /*!< HSI Ready Interrupt Clear */
 136:Drivers/STM32G0xx_HAL_Driver/Inc/stm32g0xx_ll_rcc.h **** #define LL_RCC_CICR_HSERDYC                RCC_CICR_HSERDYC     /*!< HSE Ready Interrupt Clear */
 137:Drivers/STM32G0xx_HAL_Driver/Inc/stm32g0xx_ll_rcc.h **** #define LL_RCC_CICR_PLLRDYC                RCC_CICR_PLLRDYC     /*!< PLL Ready Interrupt Clear */
 138:Drivers/STM32G0xx_HAL_Driver/Inc/stm32g0xx_ll_rcc.h **** #define LL_RCC_CICR_LSECSSC                RCC_CICR_LSECSSC     /*!< LSE Clock Security System Inte
 139:Drivers/STM32G0xx_HAL_Driver/Inc/stm32g0xx_ll_rcc.h **** #define LL_RCC_CICR_CSSC                   RCC_CICR_CSSC        /*!< Clock Security System Interrup
 140:Drivers/STM32G0xx_HAL_Driver/Inc/stm32g0xx_ll_rcc.h **** #if defined(RCC_HSI48_SUPPORT)
 141:Drivers/STM32G0xx_HAL_Driver/Inc/stm32g0xx_ll_rcc.h **** #define LL_RCC_CICR_HSI48RDYC              RCC_CICR_HSI48RDYC   /*!< HSI48 Ready Interrupt Clear */
 142:Drivers/STM32G0xx_HAL_Driver/Inc/stm32g0xx_ll_rcc.h **** #endif /* RCC_HSI48_SUPPORT */
 143:Drivers/STM32G0xx_HAL_Driver/Inc/stm32g0xx_ll_rcc.h **** /**
 144:Drivers/STM32G0xx_HAL_Driver/Inc/stm32g0xx_ll_rcc.h ****   * @}
 145:Drivers/STM32G0xx_HAL_Driver/Inc/stm32g0xx_ll_rcc.h ****   */
 146:Drivers/STM32G0xx_HAL_Driver/Inc/stm32g0xx_ll_rcc.h **** 
 147:Drivers/STM32G0xx_HAL_Driver/Inc/stm32g0xx_ll_rcc.h **** /** @defgroup RCC_LL_EC_GET_FLAG Get Flags Defines
 148:Drivers/STM32G0xx_HAL_Driver/Inc/stm32g0xx_ll_rcc.h ****   * @brief    Flags defines which can be used with LL_RCC_ReadReg function
 149:Drivers/STM32G0xx_HAL_Driver/Inc/stm32g0xx_ll_rcc.h ****   * @{
 150:Drivers/STM32G0xx_HAL_Driver/Inc/stm32g0xx_ll_rcc.h ****   */
 151:Drivers/STM32G0xx_HAL_Driver/Inc/stm32g0xx_ll_rcc.h **** #define LL_RCC_CIFR_LSIRDYF                RCC_CIFR_LSIRDYF     /*!< LSI Ready Interrupt flag */
 152:Drivers/STM32G0xx_HAL_Driver/Inc/stm32g0xx_ll_rcc.h **** #define LL_RCC_CIFR_LSERDYF                RCC_CIFR_LSERDYF     /*!< LSE Ready Interrupt flag */
 153:Drivers/STM32G0xx_HAL_Driver/Inc/stm32g0xx_ll_rcc.h **** #define LL_RCC_CIFR_HSIRDYF                RCC_CIFR_HSIRDYF     /*!< HSI Ready Interrupt flag */
 154:Drivers/STM32G0xx_HAL_Driver/Inc/stm32g0xx_ll_rcc.h **** #if defined(RCC_HSI48_SUPPORT)
 155:Drivers/STM32G0xx_HAL_Driver/Inc/stm32g0xx_ll_rcc.h **** #define LL_RCC_CIFR_HSI48RDYF              RCC_CIFR_HSI48RDYF   /*!< HSI48 Ready Interrupt flag */
 156:Drivers/STM32G0xx_HAL_Driver/Inc/stm32g0xx_ll_rcc.h **** #endif /* RCC_HSI48_SUPPORT */
 157:Drivers/STM32G0xx_HAL_Driver/Inc/stm32g0xx_ll_rcc.h **** #define LL_RCC_CIFR_HSERDYF                RCC_CIFR_HSERDYF     /*!< HSE Ready Interrupt flag */
 158:Drivers/STM32G0xx_HAL_Driver/Inc/stm32g0xx_ll_rcc.h **** #define LL_RCC_CIFR_PLLRDYF                RCC_CIFR_PLLRDYF     /*!< PLL Ready Interrupt flag */
 159:Drivers/STM32G0xx_HAL_Driver/Inc/stm32g0xx_ll_rcc.h **** #define LL_RCC_CIFR_LSECSSF                RCC_CIFR_LSECSSF     /*!< LSE Clock Security System Inte
ARM GAS  /tmp/ccETUiog.s 			page 57


 160:Drivers/STM32G0xx_HAL_Driver/Inc/stm32g0xx_ll_rcc.h **** #define LL_RCC_CIFR_CSSF                   RCC_CIFR_CSSF        /*!< Clock Security System Interrup
 161:Drivers/STM32G0xx_HAL_Driver/Inc/stm32g0xx_ll_rcc.h **** #define LL_RCC_CSR_LPWRRSTF                RCC_CSR_LPWRRSTF   /*!< Low-Power reset flag */
 162:Drivers/STM32G0xx_HAL_Driver/Inc/stm32g0xx_ll_rcc.h **** #define LL_RCC_CSR_OBLRSTF                 RCC_CSR_OBLRSTF    /*!< OBL reset flag */
 163:Drivers/STM32G0xx_HAL_Driver/Inc/stm32g0xx_ll_rcc.h **** #define LL_RCC_CSR_PINRSTF                 RCC_CSR_PINRSTF    /*!< PIN reset flag */
 164:Drivers/STM32G0xx_HAL_Driver/Inc/stm32g0xx_ll_rcc.h **** #define LL_RCC_CSR_SFTRSTF                 RCC_CSR_SFTRSTF    /*!< Software Reset flag */
 165:Drivers/STM32G0xx_HAL_Driver/Inc/stm32g0xx_ll_rcc.h **** #define LL_RCC_CSR_IWDGRSTF                RCC_CSR_IWDGRSTF   /*!< Independent Watchdog reset flag 
 166:Drivers/STM32G0xx_HAL_Driver/Inc/stm32g0xx_ll_rcc.h **** #define LL_RCC_CSR_WWDGRSTF                RCC_CSR_WWDGRSTF   /*!< Window watchdog reset flag */
 167:Drivers/STM32G0xx_HAL_Driver/Inc/stm32g0xx_ll_rcc.h **** #define LL_RCC_CSR_PWRRSTF                 RCC_CSR_PWRRSTF    /*!< BOR or POR/PDR reset flag */
 168:Drivers/STM32G0xx_HAL_Driver/Inc/stm32g0xx_ll_rcc.h **** /**
 169:Drivers/STM32G0xx_HAL_Driver/Inc/stm32g0xx_ll_rcc.h ****   * @}
 170:Drivers/STM32G0xx_HAL_Driver/Inc/stm32g0xx_ll_rcc.h ****   */
 171:Drivers/STM32G0xx_HAL_Driver/Inc/stm32g0xx_ll_rcc.h **** 
 172:Drivers/STM32G0xx_HAL_Driver/Inc/stm32g0xx_ll_rcc.h **** /** @defgroup RCC_LL_EC_IT IT Defines
 173:Drivers/STM32G0xx_HAL_Driver/Inc/stm32g0xx_ll_rcc.h ****   * @brief    IT defines which can be used with LL_RCC_ReadReg and  LL_RCC_WriteReg functions
 174:Drivers/STM32G0xx_HAL_Driver/Inc/stm32g0xx_ll_rcc.h ****   * @{
 175:Drivers/STM32G0xx_HAL_Driver/Inc/stm32g0xx_ll_rcc.h ****   */
 176:Drivers/STM32G0xx_HAL_Driver/Inc/stm32g0xx_ll_rcc.h **** #define LL_RCC_CIER_LSIRDYIE               RCC_CIER_LSIRDYIE      /*!< LSI Ready Interrupt Enable *
 177:Drivers/STM32G0xx_HAL_Driver/Inc/stm32g0xx_ll_rcc.h **** #define LL_RCC_CIER_LSERDYIE               RCC_CIER_LSERDYIE      /*!< LSE Ready Interrupt Enable *
 178:Drivers/STM32G0xx_HAL_Driver/Inc/stm32g0xx_ll_rcc.h **** #define LL_RCC_CIER_HSIRDYIE               RCC_CIER_HSIRDYIE      /*!< HSI Ready Interrupt Enable *
 179:Drivers/STM32G0xx_HAL_Driver/Inc/stm32g0xx_ll_rcc.h **** #define LL_RCC_CIER_HSERDYIE               RCC_CIER_HSERDYIE      /*!< HSE Ready Interrupt Enable *
 180:Drivers/STM32G0xx_HAL_Driver/Inc/stm32g0xx_ll_rcc.h **** #define LL_RCC_CIER_PLLRDYIE               RCC_CIER_PLLRDYIE      /*!< PLL Ready Interrupt Enable *
 181:Drivers/STM32G0xx_HAL_Driver/Inc/stm32g0xx_ll_rcc.h **** #if defined(RCC_HSI48_SUPPORT)
 182:Drivers/STM32G0xx_HAL_Driver/Inc/stm32g0xx_ll_rcc.h **** #define LL_RCC_CIER_HSI48RDYIE             RCC_CIER_HSI48RDYIE    /*!< HSI48 Ready Interrupt Enable
 183:Drivers/STM32G0xx_HAL_Driver/Inc/stm32g0xx_ll_rcc.h **** #endif /* RCC_HSI48_SUPPORT */
 184:Drivers/STM32G0xx_HAL_Driver/Inc/stm32g0xx_ll_rcc.h **** /**
 185:Drivers/STM32G0xx_HAL_Driver/Inc/stm32g0xx_ll_rcc.h ****   * @}
 186:Drivers/STM32G0xx_HAL_Driver/Inc/stm32g0xx_ll_rcc.h ****   */
 187:Drivers/STM32G0xx_HAL_Driver/Inc/stm32g0xx_ll_rcc.h **** 
 188:Drivers/STM32G0xx_HAL_Driver/Inc/stm32g0xx_ll_rcc.h **** /** @defgroup RCC_LL_EC_LSEDRIVE  LSE oscillator drive capability
 189:Drivers/STM32G0xx_HAL_Driver/Inc/stm32g0xx_ll_rcc.h ****   * @{
 190:Drivers/STM32G0xx_HAL_Driver/Inc/stm32g0xx_ll_rcc.h ****   */
 191:Drivers/STM32G0xx_HAL_Driver/Inc/stm32g0xx_ll_rcc.h **** #define LL_RCC_LSEDRIVE_LOW                0x00000000U             /*!< Xtal mode lower driving cap
 192:Drivers/STM32G0xx_HAL_Driver/Inc/stm32g0xx_ll_rcc.h **** #define LL_RCC_LSEDRIVE_MEDIUMLOW          RCC_BDCR_LSEDRV_0       /*!< Xtal mode medium low drivin
 193:Drivers/STM32G0xx_HAL_Driver/Inc/stm32g0xx_ll_rcc.h **** #define LL_RCC_LSEDRIVE_MEDIUMHIGH         RCC_BDCR_LSEDRV_1       /*!< Xtal mode medium high drivi
 194:Drivers/STM32G0xx_HAL_Driver/Inc/stm32g0xx_ll_rcc.h **** #define LL_RCC_LSEDRIVE_HIGH               RCC_BDCR_LSEDRV         /*!< Xtal mode higher driving ca
 195:Drivers/STM32G0xx_HAL_Driver/Inc/stm32g0xx_ll_rcc.h **** /**
 196:Drivers/STM32G0xx_HAL_Driver/Inc/stm32g0xx_ll_rcc.h ****   * @}
 197:Drivers/STM32G0xx_HAL_Driver/Inc/stm32g0xx_ll_rcc.h ****   */
 198:Drivers/STM32G0xx_HAL_Driver/Inc/stm32g0xx_ll_rcc.h **** 
 199:Drivers/STM32G0xx_HAL_Driver/Inc/stm32g0xx_ll_rcc.h **** /** @defgroup RCC_LL_EC_LSCO_CLKSOURCE  LSCO Selection
 200:Drivers/STM32G0xx_HAL_Driver/Inc/stm32g0xx_ll_rcc.h ****   * @{
 201:Drivers/STM32G0xx_HAL_Driver/Inc/stm32g0xx_ll_rcc.h ****   */
 202:Drivers/STM32G0xx_HAL_Driver/Inc/stm32g0xx_ll_rcc.h **** #define LL_RCC_LSCO_CLKSOURCE_LSI          0x00000000U                 /*!< LSI selection for low s
 203:Drivers/STM32G0xx_HAL_Driver/Inc/stm32g0xx_ll_rcc.h **** #define LL_RCC_LSCO_CLKSOURCE_LSE          RCC_BDCR_LSCOSEL            /*!< LSE selection for low s
 204:Drivers/STM32G0xx_HAL_Driver/Inc/stm32g0xx_ll_rcc.h **** /**
 205:Drivers/STM32G0xx_HAL_Driver/Inc/stm32g0xx_ll_rcc.h ****   * @}
 206:Drivers/STM32G0xx_HAL_Driver/Inc/stm32g0xx_ll_rcc.h ****   */
 207:Drivers/STM32G0xx_HAL_Driver/Inc/stm32g0xx_ll_rcc.h **** 
 208:Drivers/STM32G0xx_HAL_Driver/Inc/stm32g0xx_ll_rcc.h **** /** @defgroup RCC_LL_EC_SYS_CLKSOURCE  System clock switch
 209:Drivers/STM32G0xx_HAL_Driver/Inc/stm32g0xx_ll_rcc.h ****   * @{
 210:Drivers/STM32G0xx_HAL_Driver/Inc/stm32g0xx_ll_rcc.h ****   */
 211:Drivers/STM32G0xx_HAL_Driver/Inc/stm32g0xx_ll_rcc.h **** #define LL_RCC_SYS_CLKSOURCE_HSI           0x00000000U                        /*!< HSI selection as
 212:Drivers/STM32G0xx_HAL_Driver/Inc/stm32g0xx_ll_rcc.h **** #define LL_RCC_SYS_CLKSOURCE_HSE           RCC_CFGR_SW_0                      /*!< HSE selection as
 213:Drivers/STM32G0xx_HAL_Driver/Inc/stm32g0xx_ll_rcc.h **** #define LL_RCC_SYS_CLKSOURCE_PLL           RCC_CFGR_SW_1                      /*!< PLL selection as
 214:Drivers/STM32G0xx_HAL_Driver/Inc/stm32g0xx_ll_rcc.h **** #define LL_RCC_SYS_CLKSOURCE_LSI           (RCC_CFGR_SW_1 | RCC_CFGR_SW_0)    /*!< LSI selection us
 215:Drivers/STM32G0xx_HAL_Driver/Inc/stm32g0xx_ll_rcc.h **** #define LL_RCC_SYS_CLKSOURCE_LSE           RCC_CFGR_SW_2                      /*!< LSE selection us
 216:Drivers/STM32G0xx_HAL_Driver/Inc/stm32g0xx_ll_rcc.h **** /**
ARM GAS  /tmp/ccETUiog.s 			page 58


 217:Drivers/STM32G0xx_HAL_Driver/Inc/stm32g0xx_ll_rcc.h ****   * @}
 218:Drivers/STM32G0xx_HAL_Driver/Inc/stm32g0xx_ll_rcc.h ****   */
 219:Drivers/STM32G0xx_HAL_Driver/Inc/stm32g0xx_ll_rcc.h **** 
 220:Drivers/STM32G0xx_HAL_Driver/Inc/stm32g0xx_ll_rcc.h **** /** @defgroup RCC_LL_EC_SYS_CLKSOURCE_STATUS  System clock switch status
 221:Drivers/STM32G0xx_HAL_Driver/Inc/stm32g0xx_ll_rcc.h ****   * @{
 222:Drivers/STM32G0xx_HAL_Driver/Inc/stm32g0xx_ll_rcc.h ****   */
 223:Drivers/STM32G0xx_HAL_Driver/Inc/stm32g0xx_ll_rcc.h **** #define LL_RCC_SYS_CLKSOURCE_STATUS_HSI    0x00000000U                         /*!< HSI used as sys
 224:Drivers/STM32G0xx_HAL_Driver/Inc/stm32g0xx_ll_rcc.h **** #define LL_RCC_SYS_CLKSOURCE_STATUS_HSE    RCC_CFGR_SWS_0                      /*!< HSE used as sys
 225:Drivers/STM32G0xx_HAL_Driver/Inc/stm32g0xx_ll_rcc.h **** #define LL_RCC_SYS_CLKSOURCE_STATUS_PLL    RCC_CFGR_SWS_1                      /*!< PLL used as sys
 226:Drivers/STM32G0xx_HAL_Driver/Inc/stm32g0xx_ll_rcc.h **** #define LL_RCC_SYS_CLKSOURCE_STATUS_LSI    (RCC_CFGR_SWS_1 | RCC_CFGR_SWS_0)   /*!< LSI used as sys
 227:Drivers/STM32G0xx_HAL_Driver/Inc/stm32g0xx_ll_rcc.h **** #define LL_RCC_SYS_CLKSOURCE_STATUS_LSE    RCC_CFGR_SWS_2                      /*!< LSE used as sys
 228:Drivers/STM32G0xx_HAL_Driver/Inc/stm32g0xx_ll_rcc.h **** /**
 229:Drivers/STM32G0xx_HAL_Driver/Inc/stm32g0xx_ll_rcc.h ****   * @}
 230:Drivers/STM32G0xx_HAL_Driver/Inc/stm32g0xx_ll_rcc.h ****   */
 231:Drivers/STM32G0xx_HAL_Driver/Inc/stm32g0xx_ll_rcc.h **** 
 232:Drivers/STM32G0xx_HAL_Driver/Inc/stm32g0xx_ll_rcc.h **** /** @defgroup RCC_LL_EC_SYSCLK_DIV  AHB prescaler
 233:Drivers/STM32G0xx_HAL_Driver/Inc/stm32g0xx_ll_rcc.h ****   * @{
 234:Drivers/STM32G0xx_HAL_Driver/Inc/stm32g0xx_ll_rcc.h ****   */
 235:Drivers/STM32G0xx_HAL_Driver/Inc/stm32g0xx_ll_rcc.h **** #define LL_RCC_SYSCLK_DIV_1                0x00000000U                                             
 236:Drivers/STM32G0xx_HAL_Driver/Inc/stm32g0xx_ll_rcc.h **** #define LL_RCC_SYSCLK_DIV_2                RCC_CFGR_HPRE_3                                         
 237:Drivers/STM32G0xx_HAL_Driver/Inc/stm32g0xx_ll_rcc.h **** #define LL_RCC_SYSCLK_DIV_4                (RCC_CFGR_HPRE_3 | RCC_CFGR_HPRE_0)                     
 238:Drivers/STM32G0xx_HAL_Driver/Inc/stm32g0xx_ll_rcc.h **** #define LL_RCC_SYSCLK_DIV_8                (RCC_CFGR_HPRE_3 | RCC_CFGR_HPRE_1)                     
 239:Drivers/STM32G0xx_HAL_Driver/Inc/stm32g0xx_ll_rcc.h **** #define LL_RCC_SYSCLK_DIV_16               (RCC_CFGR_HPRE_3 | RCC_CFGR_HPRE_1 | RCC_CFGR_HPRE_0)   
 240:Drivers/STM32G0xx_HAL_Driver/Inc/stm32g0xx_ll_rcc.h **** #define LL_RCC_SYSCLK_DIV_64               (RCC_CFGR_HPRE_3 | RCC_CFGR_HPRE_2)                     
 241:Drivers/STM32G0xx_HAL_Driver/Inc/stm32g0xx_ll_rcc.h **** #define LL_RCC_SYSCLK_DIV_128              (RCC_CFGR_HPRE_3 | RCC_CFGR_HPRE_2 | RCC_CFGR_HPRE_0)   
 242:Drivers/STM32G0xx_HAL_Driver/Inc/stm32g0xx_ll_rcc.h **** #define LL_RCC_SYSCLK_DIV_256              (RCC_CFGR_HPRE_3 | RCC_CFGR_HPRE_2 | RCC_CFGR_HPRE_1)   
 243:Drivers/STM32G0xx_HAL_Driver/Inc/stm32g0xx_ll_rcc.h **** #define LL_RCC_SYSCLK_DIV_512              (RCC_CFGR_HPRE_3 | RCC_CFGR_HPRE_2 | RCC_CFGR_HPRE_1 | R
 244:Drivers/STM32G0xx_HAL_Driver/Inc/stm32g0xx_ll_rcc.h **** /**
 245:Drivers/STM32G0xx_HAL_Driver/Inc/stm32g0xx_ll_rcc.h ****   * @}
 246:Drivers/STM32G0xx_HAL_Driver/Inc/stm32g0xx_ll_rcc.h ****   */
 247:Drivers/STM32G0xx_HAL_Driver/Inc/stm32g0xx_ll_rcc.h **** 
 248:Drivers/STM32G0xx_HAL_Driver/Inc/stm32g0xx_ll_rcc.h **** /** @defgroup RCC_LL_EC_APB1_DIV  APB low-speed prescaler (APB1)
 249:Drivers/STM32G0xx_HAL_Driver/Inc/stm32g0xx_ll_rcc.h ****   * @{
 250:Drivers/STM32G0xx_HAL_Driver/Inc/stm32g0xx_ll_rcc.h ****   */
 251:Drivers/STM32G0xx_HAL_Driver/Inc/stm32g0xx_ll_rcc.h **** #define LL_RCC_APB1_DIV_1                  0x00000000U                                           /*
 252:Drivers/STM32G0xx_HAL_Driver/Inc/stm32g0xx_ll_rcc.h **** #define LL_RCC_APB1_DIV_2                  RCC_CFGR_PPRE_2                                       /*
 253:Drivers/STM32G0xx_HAL_Driver/Inc/stm32g0xx_ll_rcc.h **** #define LL_RCC_APB1_DIV_4                  (RCC_CFGR_PPRE_2 | RCC_CFGR_PPRE_0)                   /*
 254:Drivers/STM32G0xx_HAL_Driver/Inc/stm32g0xx_ll_rcc.h **** #define LL_RCC_APB1_DIV_8                  (RCC_CFGR_PPRE_2 | RCC_CFGR_PPRE_1)                   /*
 255:Drivers/STM32G0xx_HAL_Driver/Inc/stm32g0xx_ll_rcc.h **** #define LL_RCC_APB1_DIV_16                 (RCC_CFGR_PPRE_2 | RCC_CFGR_PPRE_1 | RCC_CFGR_PPRE_0) /*
 256:Drivers/STM32G0xx_HAL_Driver/Inc/stm32g0xx_ll_rcc.h **** /**
 257:Drivers/STM32G0xx_HAL_Driver/Inc/stm32g0xx_ll_rcc.h ****   * @}
 258:Drivers/STM32G0xx_HAL_Driver/Inc/stm32g0xx_ll_rcc.h ****   */
 259:Drivers/STM32G0xx_HAL_Driver/Inc/stm32g0xx_ll_rcc.h **** 
 260:Drivers/STM32G0xx_HAL_Driver/Inc/stm32g0xx_ll_rcc.h **** /** @defgroup RCC_LL_EC_HSI_DIV  HSI division factor
 261:Drivers/STM32G0xx_HAL_Driver/Inc/stm32g0xx_ll_rcc.h ****   * @{
 262:Drivers/STM32G0xx_HAL_Driver/Inc/stm32g0xx_ll_rcc.h ****   */
 263:Drivers/STM32G0xx_HAL_Driver/Inc/stm32g0xx_ll_rcc.h **** #define LL_RCC_HSI_DIV_1                  0x00000000U                                /*!< HSI not d
 264:Drivers/STM32G0xx_HAL_Driver/Inc/stm32g0xx_ll_rcc.h **** #define LL_RCC_HSI_DIV_2                  RCC_CR_HSIDIV_0                            /*!< HSI divid
 265:Drivers/STM32G0xx_HAL_Driver/Inc/stm32g0xx_ll_rcc.h **** #define LL_RCC_HSI_DIV_4                  RCC_CR_HSIDIV_1                            /*!< HSI divid
 266:Drivers/STM32G0xx_HAL_Driver/Inc/stm32g0xx_ll_rcc.h **** #define LL_RCC_HSI_DIV_8                  (RCC_CR_HSIDIV_1 | RCC_CR_HSIDIV_0)        /*!< HSI divid
 267:Drivers/STM32G0xx_HAL_Driver/Inc/stm32g0xx_ll_rcc.h **** #define LL_RCC_HSI_DIV_16                 RCC_CR_HSIDIV_2                            /*!< HSI divid
 268:Drivers/STM32G0xx_HAL_Driver/Inc/stm32g0xx_ll_rcc.h **** #define LL_RCC_HSI_DIV_32                 (RCC_CR_HSIDIV_2 | RCC_CR_HSIDIV_0)        /*!< HSI divid
 269:Drivers/STM32G0xx_HAL_Driver/Inc/stm32g0xx_ll_rcc.h **** #define LL_RCC_HSI_DIV_64                 (RCC_CR_HSIDIV_2 | RCC_CR_HSIDIV_1)        /*!< HSI divid
 270:Drivers/STM32G0xx_HAL_Driver/Inc/stm32g0xx_ll_rcc.h **** #define LL_RCC_HSI_DIV_128                RCC_CR_HSIDIV                              /*!< HSI divid
 271:Drivers/STM32G0xx_HAL_Driver/Inc/stm32g0xx_ll_rcc.h **** /**
 272:Drivers/STM32G0xx_HAL_Driver/Inc/stm32g0xx_ll_rcc.h ****   * @}
 273:Drivers/STM32G0xx_HAL_Driver/Inc/stm32g0xx_ll_rcc.h ****   */
ARM GAS  /tmp/ccETUiog.s 			page 59


 274:Drivers/STM32G0xx_HAL_Driver/Inc/stm32g0xx_ll_rcc.h **** 
 275:Drivers/STM32G0xx_HAL_Driver/Inc/stm32g0xx_ll_rcc.h **** /** @defgroup RCC_LL_EC_MCO1SOURCE  MCO1 SOURCE selection
 276:Drivers/STM32G0xx_HAL_Driver/Inc/stm32g0xx_ll_rcc.h ****   * @{
 277:Drivers/STM32G0xx_HAL_Driver/Inc/stm32g0xx_ll_rcc.h ****   */
 278:Drivers/STM32G0xx_HAL_Driver/Inc/stm32g0xx_ll_rcc.h **** #define LL_RCC_MCO1SOURCE_NOCLOCK          0x00000000U                            /*!< MCO output d
 279:Drivers/STM32G0xx_HAL_Driver/Inc/stm32g0xx_ll_rcc.h **** #define LL_RCC_MCO1SOURCE_SYSCLK           RCC_CFGR_MCOSEL_0                      /*!< SYSCLK selec
 280:Drivers/STM32G0xx_HAL_Driver/Inc/stm32g0xx_ll_rcc.h **** #if defined(RCC_HSI48_SUPPORT)
 281:Drivers/STM32G0xx_HAL_Driver/Inc/stm32g0xx_ll_rcc.h **** #define LL_RCC_MCO1SOURCE_HSI48            RCC_CFGR_MCOSEL_1                      /*!< HSI48 select
 282:Drivers/STM32G0xx_HAL_Driver/Inc/stm32g0xx_ll_rcc.h **** #endif /* RCC_HSI48_SUPPORT */
 283:Drivers/STM32G0xx_HAL_Driver/Inc/stm32g0xx_ll_rcc.h **** #define LL_RCC_MCO1SOURCE_HSI              (RCC_CFGR_MCOSEL_0| RCC_CFGR_MCOSEL_1) /*!< HSI16 select
 284:Drivers/STM32G0xx_HAL_Driver/Inc/stm32g0xx_ll_rcc.h **** #define LL_RCC_MCO1SOURCE_HSE              RCC_CFGR_MCOSEL_2                      /*!< HSE selectio
 285:Drivers/STM32G0xx_HAL_Driver/Inc/stm32g0xx_ll_rcc.h **** #define LL_RCC_MCO1SOURCE_PLLCLK           (RCC_CFGR_MCOSEL_0|RCC_CFGR_MCOSEL_2)  /*!< Main PLL sel
 286:Drivers/STM32G0xx_HAL_Driver/Inc/stm32g0xx_ll_rcc.h **** #define LL_RCC_MCO1SOURCE_LSI              (RCC_CFGR_MCOSEL_1|RCC_CFGR_MCOSEL_2)  /*!< LSI selectio
 287:Drivers/STM32G0xx_HAL_Driver/Inc/stm32g0xx_ll_rcc.h **** #define LL_RCC_MCO1SOURCE_LSE              (RCC_CFGR_MCOSEL_0|RCC_CFGR_MCOSEL_1|RCC_CFGR_MCOSEL_2) 
 288:Drivers/STM32G0xx_HAL_Driver/Inc/stm32g0xx_ll_rcc.h **** #if defined(RCC_CFGR_MCOSEL_3)
 289:Drivers/STM32G0xx_HAL_Driver/Inc/stm32g0xx_ll_rcc.h **** #define LL_RCC_MCO1SOURCE_PLLPCLK         RCC_CFGR_MCOSEL_3                       /*!< PLLPCLK sele
 290:Drivers/STM32G0xx_HAL_Driver/Inc/stm32g0xx_ll_rcc.h **** #define LL_RCC_MCO1SOURCE_PLLQCLK         (RCC_CFGR_MCOSEL_3|RCC_CFGR_MCOSEL_0)   /*!< PLLQCLK sele
 291:Drivers/STM32G0xx_HAL_Driver/Inc/stm32g0xx_ll_rcc.h **** #define LL_RCC_MCO1SOURCE_RTCCLK          (RCC_CFGR_MCOSEL_3|RCC_CFGR_MCOSEL_1)   /*!< RTCCLK selec
 292:Drivers/STM32G0xx_HAL_Driver/Inc/stm32g0xx_ll_rcc.h **** #define LL_RCC_MCO1SOURCE_RTC_WKUP        (RCC_CFGR_MCOSEL_3|RCC_CFGR_MCOSEL_1|RCC_CFGR_MCOSEL_0) /
 293:Drivers/STM32G0xx_HAL_Driver/Inc/stm32g0xx_ll_rcc.h **** #endif /* RCC_CFGR_MCOSEL_3 */
 294:Drivers/STM32G0xx_HAL_Driver/Inc/stm32g0xx_ll_rcc.h **** /**
 295:Drivers/STM32G0xx_HAL_Driver/Inc/stm32g0xx_ll_rcc.h ****   * @}
 296:Drivers/STM32G0xx_HAL_Driver/Inc/stm32g0xx_ll_rcc.h ****   */
 297:Drivers/STM32G0xx_HAL_Driver/Inc/stm32g0xx_ll_rcc.h **** 
 298:Drivers/STM32G0xx_HAL_Driver/Inc/stm32g0xx_ll_rcc.h **** /** @defgroup RCC_LL_EC_MCO1_DIV  MCO1 prescaler
 299:Drivers/STM32G0xx_HAL_Driver/Inc/stm32g0xx_ll_rcc.h ****   * @{
 300:Drivers/STM32G0xx_HAL_Driver/Inc/stm32g0xx_ll_rcc.h ****   */
 301:Drivers/STM32G0xx_HAL_Driver/Inc/stm32g0xx_ll_rcc.h **** #define LL_RCC_MCO1_DIV_1                  0x00000000U                                             
 302:Drivers/STM32G0xx_HAL_Driver/Inc/stm32g0xx_ll_rcc.h **** #define LL_RCC_MCO1_DIV_2                  RCC_CFGR_MCOPRE_0                                       
 303:Drivers/STM32G0xx_HAL_Driver/Inc/stm32g0xx_ll_rcc.h **** #define LL_RCC_MCO1_DIV_4                  RCC_CFGR_MCOPRE_1                                       
 304:Drivers/STM32G0xx_HAL_Driver/Inc/stm32g0xx_ll_rcc.h **** #define LL_RCC_MCO1_DIV_8                  (RCC_CFGR_MCOPRE_1 | RCC_CFGR_MCOPRE_0)                 
 305:Drivers/STM32G0xx_HAL_Driver/Inc/stm32g0xx_ll_rcc.h **** #define LL_RCC_MCO1_DIV_16                 RCC_CFGR_MCOPRE_2                                       
 306:Drivers/STM32G0xx_HAL_Driver/Inc/stm32g0xx_ll_rcc.h **** #define LL_RCC_MCO1_DIV_32                 (RCC_CFGR_MCOPRE_2 | RCC_CFGR_MCOPRE_0)                 
 307:Drivers/STM32G0xx_HAL_Driver/Inc/stm32g0xx_ll_rcc.h **** #define LL_RCC_MCO1_DIV_64                 (RCC_CFGR_MCOPRE_2 | RCC_CFGR_MCOPRE_1)                 
 308:Drivers/STM32G0xx_HAL_Driver/Inc/stm32g0xx_ll_rcc.h **** #define LL_RCC_MCO1_DIV_128                (RCC_CFGR_MCOPRE_2 | RCC_CFGR_MCOPRE_1 | RCC_CFGR_MCOPRE
 309:Drivers/STM32G0xx_HAL_Driver/Inc/stm32g0xx_ll_rcc.h **** #if defined(RCC_CFGR_MCOPRE_3)
 310:Drivers/STM32G0xx_HAL_Driver/Inc/stm32g0xx_ll_rcc.h **** #define LL_RCC_MCO1_DIV_256                 RCC_CFGR_MCOPRE_3                                      
 311:Drivers/STM32G0xx_HAL_Driver/Inc/stm32g0xx_ll_rcc.h **** #define LL_RCC_MCO1_DIV_512                (RCC_CFGR_MCOPRE_3 | RCC_CFGR_MCOPRE_0)                 
 312:Drivers/STM32G0xx_HAL_Driver/Inc/stm32g0xx_ll_rcc.h **** #define LL_RCC_MCO1_DIV_1024               (RCC_CFGR_MCOPRE_3 | RCC_CFGR_MCOPRE_1)                 
 313:Drivers/STM32G0xx_HAL_Driver/Inc/stm32g0xx_ll_rcc.h **** #endif /* RCC_CFGR_MCOPRE_3 */
 314:Drivers/STM32G0xx_HAL_Driver/Inc/stm32g0xx_ll_rcc.h **** /**
 315:Drivers/STM32G0xx_HAL_Driver/Inc/stm32g0xx_ll_rcc.h ****   * @}
 316:Drivers/STM32G0xx_HAL_Driver/Inc/stm32g0xx_ll_rcc.h ****   */
 317:Drivers/STM32G0xx_HAL_Driver/Inc/stm32g0xx_ll_rcc.h **** 
 318:Drivers/STM32G0xx_HAL_Driver/Inc/stm32g0xx_ll_rcc.h **** #if defined(RCC_MCO2_SUPPORT)
 319:Drivers/STM32G0xx_HAL_Driver/Inc/stm32g0xx_ll_rcc.h **** /** @defgroup RCC_LL_EC_MCO2SOURCE  MCO2 SOURCE selection
 320:Drivers/STM32G0xx_HAL_Driver/Inc/stm32g0xx_ll_rcc.h ****   * @{
 321:Drivers/STM32G0xx_HAL_Driver/Inc/stm32g0xx_ll_rcc.h ****   */
 322:Drivers/STM32G0xx_HAL_Driver/Inc/stm32g0xx_ll_rcc.h **** #define LL_RCC_MCO2SOURCE_NOCLOCK          0x00000000U                                             
 323:Drivers/STM32G0xx_HAL_Driver/Inc/stm32g0xx_ll_rcc.h **** #define LL_RCC_MCO2SOURCE_SYSCLK           RCC_CFGR_MCO2SEL_0                                      
 324:Drivers/STM32G0xx_HAL_Driver/Inc/stm32g0xx_ll_rcc.h **** #if defined(RCC_HSI48_SUPPORT)
 325:Drivers/STM32G0xx_HAL_Driver/Inc/stm32g0xx_ll_rcc.h **** #define LL_RCC_MCO2SOURCE_HSI48            RCC_CFGR_MCO2SEL_1                                      
 326:Drivers/STM32G0xx_HAL_Driver/Inc/stm32g0xx_ll_rcc.h **** #endif /* RCC_HSI48_SUPPORT */
 327:Drivers/STM32G0xx_HAL_Driver/Inc/stm32g0xx_ll_rcc.h **** #define LL_RCC_MCO2SOURCE_HSI              (RCC_CFGR_MCO2SEL_1 | RCC_CFGR_MCO2SEL_0)               
 328:Drivers/STM32G0xx_HAL_Driver/Inc/stm32g0xx_ll_rcc.h **** #define LL_RCC_MCO2SOURCE_HSE              RCC_CFGR_MCO2SEL_2                                      
 329:Drivers/STM32G0xx_HAL_Driver/Inc/stm32g0xx_ll_rcc.h **** #define LL_RCC_MCO2SOURCE_PLLCLK           (RCC_CFGR_MCO2SEL_2 | RCC_CFGR_MCO2SEL_0)               
 330:Drivers/STM32G0xx_HAL_Driver/Inc/stm32g0xx_ll_rcc.h **** #define LL_RCC_MCO2SOURCE_LSI              (RCC_CFGR_MCO2SEL_2 | RCC_CFGR_MCO2SEL_1)               
ARM GAS  /tmp/ccETUiog.s 			page 60


 331:Drivers/STM32G0xx_HAL_Driver/Inc/stm32g0xx_ll_rcc.h **** #define LL_RCC_MCO2SOURCE_LSE              (RCC_CFGR_MCO2SEL_2 | RCC_CFGR_MCO2SEL_1 | RCC_CFGR_MCO2
 332:Drivers/STM32G0xx_HAL_Driver/Inc/stm32g0xx_ll_rcc.h **** #define LL_RCC_MCO2SOURCE_PLLPCLK          RCC_CFGR_MCO2SEL_3                                      
 333:Drivers/STM32G0xx_HAL_Driver/Inc/stm32g0xx_ll_rcc.h **** #define LL_RCC_MCO2SOURCE_PLLQCLK          (RCC_CFGR_MCO2SEL_3 | RCC_CFGR_MCO2SEL_0)               
 334:Drivers/STM32G0xx_HAL_Driver/Inc/stm32g0xx_ll_rcc.h **** #define LL_RCC_MCO2SOURCE_RTCCLK           (RCC_CFGR_MCO2SEL_3 | RCC_CFGR_MCO2SEL_1)               
 335:Drivers/STM32G0xx_HAL_Driver/Inc/stm32g0xx_ll_rcc.h **** #define LL_RCC_MCO2SOURCE_RTC_WKUP         (RCC_CFGR_MCO2SEL_3 | RCC_CFGR_MCO2SEL_1 | RCC_CFGR_MCO2
 336:Drivers/STM32G0xx_HAL_Driver/Inc/stm32g0xx_ll_rcc.h **** /**
 337:Drivers/STM32G0xx_HAL_Driver/Inc/stm32g0xx_ll_rcc.h ****   * @}
 338:Drivers/STM32G0xx_HAL_Driver/Inc/stm32g0xx_ll_rcc.h ****   */
 339:Drivers/STM32G0xx_HAL_Driver/Inc/stm32g0xx_ll_rcc.h **** 
 340:Drivers/STM32G0xx_HAL_Driver/Inc/stm32g0xx_ll_rcc.h **** /** @defgroup RCC_LL_EC_MCO2_DIV  MCO2 prescaler
 341:Drivers/STM32G0xx_HAL_Driver/Inc/stm32g0xx_ll_rcc.h ****   * @{
 342:Drivers/STM32G0xx_HAL_Driver/Inc/stm32g0xx_ll_rcc.h ****   */
 343:Drivers/STM32G0xx_HAL_Driver/Inc/stm32g0xx_ll_rcc.h **** #define LL_RCC_MCO2_DIV_1                  0x00000000U                                             
 344:Drivers/STM32G0xx_HAL_Driver/Inc/stm32g0xx_ll_rcc.h **** #define LL_RCC_MCO2_DIV_2                  RCC_CFGR_MCO2PRE_0                                      
 345:Drivers/STM32G0xx_HAL_Driver/Inc/stm32g0xx_ll_rcc.h **** #define LL_RCC_MCO2_DIV_4                  RCC_CFGR_MCO2PRE_1                                      
 346:Drivers/STM32G0xx_HAL_Driver/Inc/stm32g0xx_ll_rcc.h **** #define LL_RCC_MCO2_DIV_8                  (RCC_CFGR_MCO2PRE_1 | RCC_CFGR_MCO2PRE_0)               
 347:Drivers/STM32G0xx_HAL_Driver/Inc/stm32g0xx_ll_rcc.h **** #define LL_RCC_MCO2_DIV_16                 RCC_CFGR_MCO2PRE_2                                      
 348:Drivers/STM32G0xx_HAL_Driver/Inc/stm32g0xx_ll_rcc.h **** #define LL_RCC_MCO2_DIV_32                 (RCC_CFGR_MCO2PRE_2 | RCC_CFGR_MCO2PRE_0)               
 349:Drivers/STM32G0xx_HAL_Driver/Inc/stm32g0xx_ll_rcc.h **** #define LL_RCC_MCO2_DIV_64                 (RCC_CFGR_MCO2PRE_2 | RCC_CFGR_MCO2PRE_1)               
 350:Drivers/STM32G0xx_HAL_Driver/Inc/stm32g0xx_ll_rcc.h **** #define LL_RCC_MCO2_DIV_128                (RCC_CFGR_MCO2PRE_2 | RCC_CFGR_MCO2PRE_1 | RCC_CFGR_MCO2
 351:Drivers/STM32G0xx_HAL_Driver/Inc/stm32g0xx_ll_rcc.h **** #define LL_RCC_MCO2_DIV_256                RCC_CFGR_MCO2PRE_3                                      
 352:Drivers/STM32G0xx_HAL_Driver/Inc/stm32g0xx_ll_rcc.h **** #define LL_RCC_MCO2_DIV_512                (RCC_CFGR_MCO2PRE_3 | RCC_CFGR_MCO2PRE_0)               
 353:Drivers/STM32G0xx_HAL_Driver/Inc/stm32g0xx_ll_rcc.h **** #define LL_RCC_MCO2_DIV_1024               (RCC_CFGR_MCO2PRE_3 | RCC_CFGR_MCO2PRE_1)               
 354:Drivers/STM32G0xx_HAL_Driver/Inc/stm32g0xx_ll_rcc.h **** /**
 355:Drivers/STM32G0xx_HAL_Driver/Inc/stm32g0xx_ll_rcc.h ****   * @}
 356:Drivers/STM32G0xx_HAL_Driver/Inc/stm32g0xx_ll_rcc.h ****   */
 357:Drivers/STM32G0xx_HAL_Driver/Inc/stm32g0xx_ll_rcc.h **** #endif /* RCC_MCO2_SUPPORT */
 358:Drivers/STM32G0xx_HAL_Driver/Inc/stm32g0xx_ll_rcc.h **** 
 359:Drivers/STM32G0xx_HAL_Driver/Inc/stm32g0xx_ll_rcc.h **** #if defined(USE_FULL_LL_DRIVER)
 360:Drivers/STM32G0xx_HAL_Driver/Inc/stm32g0xx_ll_rcc.h **** /** @defgroup RCC_LL_EC_PERIPH_FREQUENCY Peripheral clock frequency
 361:Drivers/STM32G0xx_HAL_Driver/Inc/stm32g0xx_ll_rcc.h ****   * @{
 362:Drivers/STM32G0xx_HAL_Driver/Inc/stm32g0xx_ll_rcc.h ****   */
 363:Drivers/STM32G0xx_HAL_Driver/Inc/stm32g0xx_ll_rcc.h **** #define LL_RCC_PERIPH_FREQUENCY_NO        0x00000000U                 /*!< No clock enabled for the
 364:Drivers/STM32G0xx_HAL_Driver/Inc/stm32g0xx_ll_rcc.h **** #define LL_RCC_PERIPH_FREQUENCY_NA        0xFFFFFFFFU                 /*!< Frequency cannot be prov
 365:Drivers/STM32G0xx_HAL_Driver/Inc/stm32g0xx_ll_rcc.h **** /**
 366:Drivers/STM32G0xx_HAL_Driver/Inc/stm32g0xx_ll_rcc.h ****   * @}
 367:Drivers/STM32G0xx_HAL_Driver/Inc/stm32g0xx_ll_rcc.h ****   */
 368:Drivers/STM32G0xx_HAL_Driver/Inc/stm32g0xx_ll_rcc.h **** #endif /* USE_FULL_LL_DRIVER */
 369:Drivers/STM32G0xx_HAL_Driver/Inc/stm32g0xx_ll_rcc.h **** 
 370:Drivers/STM32G0xx_HAL_Driver/Inc/stm32g0xx_ll_rcc.h **** /** @defgroup RCC_LL_EC_USARTx_CLKSOURCE  Peripheral USART clock source selection
 371:Drivers/STM32G0xx_HAL_Driver/Inc/stm32g0xx_ll_rcc.h ****   * @{
 372:Drivers/STM32G0xx_HAL_Driver/Inc/stm32g0xx_ll_rcc.h ****   */
 373:Drivers/STM32G0xx_HAL_Driver/Inc/stm32g0xx_ll_rcc.h **** #define LL_RCC_USART1_CLKSOURCE_PCLK1      ((RCC_CCIPR_USART1SEL << 16U) | 0x00000000U)            
 374:Drivers/STM32G0xx_HAL_Driver/Inc/stm32g0xx_ll_rcc.h **** #define LL_RCC_USART1_CLKSOURCE_SYSCLK     ((RCC_CCIPR_USART1SEL << 16U) | RCC_CCIPR_USART1SEL_0)  
 375:Drivers/STM32G0xx_HAL_Driver/Inc/stm32g0xx_ll_rcc.h **** #define LL_RCC_USART1_CLKSOURCE_HSI        ((RCC_CCIPR_USART1SEL << 16U) | RCC_CCIPR_USART1SEL_1)  
 376:Drivers/STM32G0xx_HAL_Driver/Inc/stm32g0xx_ll_rcc.h **** #define LL_RCC_USART1_CLKSOURCE_LSE        ((RCC_CCIPR_USART1SEL << 16U) | RCC_CCIPR_USART1SEL)    
 377:Drivers/STM32G0xx_HAL_Driver/Inc/stm32g0xx_ll_rcc.h **** #define LL_RCC_USART2_CLKSOURCE_PCLK1      ((RCC_CCIPR_USART2SEL << 16U) | 0x00000000U)            
 378:Drivers/STM32G0xx_HAL_Driver/Inc/stm32g0xx_ll_rcc.h **** #define LL_RCC_USART2_CLKSOURCE_SYSCLK     ((RCC_CCIPR_USART2SEL << 16U) | RCC_CCIPR_USART2SEL_0)  
 379:Drivers/STM32G0xx_HAL_Driver/Inc/stm32g0xx_ll_rcc.h **** #define LL_RCC_USART2_CLKSOURCE_HSI        ((RCC_CCIPR_USART2SEL << 16U) | RCC_CCIPR_USART2SEL_1)  
 380:Drivers/STM32G0xx_HAL_Driver/Inc/stm32g0xx_ll_rcc.h **** #define LL_RCC_USART2_CLKSOURCE_LSE        ((RCC_CCIPR_USART2SEL << 16U) | RCC_CCIPR_USART2SEL)    
 381:Drivers/STM32G0xx_HAL_Driver/Inc/stm32g0xx_ll_rcc.h **** #if defined(RCC_CCIPR_USART3SEL)
 382:Drivers/STM32G0xx_HAL_Driver/Inc/stm32g0xx_ll_rcc.h **** #define LL_RCC_USART3_CLKSOURCE_PCLK1      ((RCC_CCIPR_USART3SEL << 16U) | 0x00000000U)           /
 383:Drivers/STM32G0xx_HAL_Driver/Inc/stm32g0xx_ll_rcc.h **** #define LL_RCC_USART3_CLKSOURCE_SYSCLK     ((RCC_CCIPR_USART3SEL << 16U) | RCC_CCIPR_USART3SEL_0) /
 384:Drivers/STM32G0xx_HAL_Driver/Inc/stm32g0xx_ll_rcc.h **** #define LL_RCC_USART3_CLKSOURCE_HSI        ((RCC_CCIPR_USART3SEL << 16U) | RCC_CCIPR_USART3SEL_1) /
 385:Drivers/STM32G0xx_HAL_Driver/Inc/stm32g0xx_ll_rcc.h **** #define LL_RCC_USART3_CLKSOURCE_LSE        ((RCC_CCIPR_USART3SEL << 16U) | RCC_CCIPR_USART3SEL)   /
 386:Drivers/STM32G0xx_HAL_Driver/Inc/stm32g0xx_ll_rcc.h **** #endif /* RCC_CCIPR_USART3SEL */
 387:Drivers/STM32G0xx_HAL_Driver/Inc/stm32g0xx_ll_rcc.h **** /**
ARM GAS  /tmp/ccETUiog.s 			page 61


 388:Drivers/STM32G0xx_HAL_Driver/Inc/stm32g0xx_ll_rcc.h ****   * @}
 389:Drivers/STM32G0xx_HAL_Driver/Inc/stm32g0xx_ll_rcc.h ****   */
 390:Drivers/STM32G0xx_HAL_Driver/Inc/stm32g0xx_ll_rcc.h **** 
 391:Drivers/STM32G0xx_HAL_Driver/Inc/stm32g0xx_ll_rcc.h **** #if defined(LPUART1) || defined(LPUART2)
 392:Drivers/STM32G0xx_HAL_Driver/Inc/stm32g0xx_ll_rcc.h **** /** @defgroup RCC_LL_EC_LPUARTx_CLKSOURCE Peripheral LPUART clock source selection
 393:Drivers/STM32G0xx_HAL_Driver/Inc/stm32g0xx_ll_rcc.h ****   * @{
 394:Drivers/STM32G0xx_HAL_Driver/Inc/stm32g0xx_ll_rcc.h ****   */
 395:Drivers/STM32G0xx_HAL_Driver/Inc/stm32g0xx_ll_rcc.h **** #if defined(LPUART2)
 396:Drivers/STM32G0xx_HAL_Driver/Inc/stm32g0xx_ll_rcc.h **** #define LL_RCC_LPUART2_CLKSOURCE_PCLK1     ((RCC_CCIPR_LPUART2SEL << 16U) | 0x00000000U)           
 397:Drivers/STM32G0xx_HAL_Driver/Inc/stm32g0xx_ll_rcc.h **** #define LL_RCC_LPUART2_CLKSOURCE_SYSCLK    ((RCC_CCIPR_LPUART2SEL << 16U) | RCC_CCIPR_LPUART2SEL_0)
 398:Drivers/STM32G0xx_HAL_Driver/Inc/stm32g0xx_ll_rcc.h **** #define LL_RCC_LPUART2_CLKSOURCE_HSI       ((RCC_CCIPR_LPUART2SEL << 16U) | RCC_CCIPR_LPUART2SEL_1)
 399:Drivers/STM32G0xx_HAL_Driver/Inc/stm32g0xx_ll_rcc.h **** #define LL_RCC_LPUART2_CLKSOURCE_LSE       ((RCC_CCIPR_LPUART2SEL << 16U) | RCC_CCIPR_LPUART2SEL)  
 400:Drivers/STM32G0xx_HAL_Driver/Inc/stm32g0xx_ll_rcc.h **** #endif /* LPUART2 */
 401:Drivers/STM32G0xx_HAL_Driver/Inc/stm32g0xx_ll_rcc.h **** #define LL_RCC_LPUART1_CLKSOURCE_PCLK1     ((RCC_CCIPR_LPUART1SEL << 16U) | 0x00000000U)           
 402:Drivers/STM32G0xx_HAL_Driver/Inc/stm32g0xx_ll_rcc.h **** #define LL_RCC_LPUART1_CLKSOURCE_SYSCLK    ((RCC_CCIPR_LPUART1SEL << 16U) | RCC_CCIPR_LPUART1SEL_0)
 403:Drivers/STM32G0xx_HAL_Driver/Inc/stm32g0xx_ll_rcc.h **** #define LL_RCC_LPUART1_CLKSOURCE_HSI       ((RCC_CCIPR_LPUART1SEL << 16U) | RCC_CCIPR_LPUART1SEL_1)
 404:Drivers/STM32G0xx_HAL_Driver/Inc/stm32g0xx_ll_rcc.h **** #define LL_RCC_LPUART1_CLKSOURCE_LSE       ((RCC_CCIPR_LPUART1SEL << 16U) | RCC_CCIPR_LPUART1SEL)  
 405:Drivers/STM32G0xx_HAL_Driver/Inc/stm32g0xx_ll_rcc.h **** /**
 406:Drivers/STM32G0xx_HAL_Driver/Inc/stm32g0xx_ll_rcc.h ****   * @}
 407:Drivers/STM32G0xx_HAL_Driver/Inc/stm32g0xx_ll_rcc.h ****   */
 408:Drivers/STM32G0xx_HAL_Driver/Inc/stm32g0xx_ll_rcc.h **** #endif /* LPUART1 || LPUART2 */
 409:Drivers/STM32G0xx_HAL_Driver/Inc/stm32g0xx_ll_rcc.h **** 
 410:Drivers/STM32G0xx_HAL_Driver/Inc/stm32g0xx_ll_rcc.h **** /** @defgroup RCC_LL_EC_I2Cx_CLKSOURCE Peripheral I2C clock source selection
 411:Drivers/STM32G0xx_HAL_Driver/Inc/stm32g0xx_ll_rcc.h ****   * @{
 412:Drivers/STM32G0xx_HAL_Driver/Inc/stm32g0xx_ll_rcc.h ****   */
 413:Drivers/STM32G0xx_HAL_Driver/Inc/stm32g0xx_ll_rcc.h **** #define LL_RCC_I2C1_CLKSOURCE_PCLK1        ((RCC_CCIPR_I2C1SEL << 16U) | 0x00000000U)          /*!<
 414:Drivers/STM32G0xx_HAL_Driver/Inc/stm32g0xx_ll_rcc.h **** #define LL_RCC_I2C1_CLKSOURCE_SYSCLK       ((RCC_CCIPR_I2C1SEL << 16U) | RCC_CCIPR_I2C1SEL_0)  /*!<
 415:Drivers/STM32G0xx_HAL_Driver/Inc/stm32g0xx_ll_rcc.h **** #define LL_RCC_I2C1_CLKSOURCE_HSI          ((RCC_CCIPR_I2C1SEL << 16U) | RCC_CCIPR_I2C1SEL_1)  /*!<
 416:Drivers/STM32G0xx_HAL_Driver/Inc/stm32g0xx_ll_rcc.h **** #if defined(RCC_CCIPR_I2C2SEL)
 417:Drivers/STM32G0xx_HAL_Driver/Inc/stm32g0xx_ll_rcc.h **** #define LL_RCC_I2C2_CLKSOURCE_PCLK1        ((RCC_CCIPR_I2C2SEL << 16U) | 0x00000000U)          /*!<
 418:Drivers/STM32G0xx_HAL_Driver/Inc/stm32g0xx_ll_rcc.h **** #define LL_RCC_I2C2_CLKSOURCE_SYSCLK       ((RCC_CCIPR_I2C2SEL << 16U) | RCC_CCIPR_I2C2SEL_0)  /*!<
 419:Drivers/STM32G0xx_HAL_Driver/Inc/stm32g0xx_ll_rcc.h **** #define LL_RCC_I2C2_CLKSOURCE_HSI          ((RCC_CCIPR_I2C2SEL << 16U) | RCC_CCIPR_I2C2SEL_1)  /*!<
 420:Drivers/STM32G0xx_HAL_Driver/Inc/stm32g0xx_ll_rcc.h **** #endif /* RCC_CCIPR_I2C2SEL */
 421:Drivers/STM32G0xx_HAL_Driver/Inc/stm32g0xx_ll_rcc.h **** /**
 422:Drivers/STM32G0xx_HAL_Driver/Inc/stm32g0xx_ll_rcc.h ****   * @}
 423:Drivers/STM32G0xx_HAL_Driver/Inc/stm32g0xx_ll_rcc.h ****   */
 424:Drivers/STM32G0xx_HAL_Driver/Inc/stm32g0xx_ll_rcc.h **** 
 425:Drivers/STM32G0xx_HAL_Driver/Inc/stm32g0xx_ll_rcc.h **** /** @defgroup RCC_LL_EC_I2Sx_CLKSOURCE Peripheral I2S clock source selection
 426:Drivers/STM32G0xx_HAL_Driver/Inc/stm32g0xx_ll_rcc.h ****   * @{
 427:Drivers/STM32G0xx_HAL_Driver/Inc/stm32g0xx_ll_rcc.h ****   */
 428:Drivers/STM32G0xx_HAL_Driver/Inc/stm32g0xx_ll_rcc.h **** #if defined(STM32G0C1xx) || defined(STM32G0B1xx) || defined(STM32G0B0xx)
 429:Drivers/STM32G0xx_HAL_Driver/Inc/stm32g0xx_ll_rcc.h **** #define LL_RCC_I2S1_CLKSOURCE_SYSCLK      ((RCC_CCIPR2_I2S1SEL << 16U) | 0x00000000U)          /*!<
 430:Drivers/STM32G0xx_HAL_Driver/Inc/stm32g0xx_ll_rcc.h **** #define LL_RCC_I2S1_CLKSOURCE_PLL         ((RCC_CCIPR2_I2S1SEL << 16U) | RCC_CCIPR2_I2S1SEL_0)  /*!
 431:Drivers/STM32G0xx_HAL_Driver/Inc/stm32g0xx_ll_rcc.h **** #define LL_RCC_I2S1_CLKSOURCE_HSI         ((RCC_CCIPR2_I2S1SEL << 16U) | RCC_CCIPR2_I2S1SEL_1)  /*!
 432:Drivers/STM32G0xx_HAL_Driver/Inc/stm32g0xx_ll_rcc.h **** #define LL_RCC_I2S1_CLKSOURCE_PIN         ((RCC_CCIPR2_I2S1SEL << 16U) | RCC_CCIPR2_I2S1SEL)    /*!
 433:Drivers/STM32G0xx_HAL_Driver/Inc/stm32g0xx_ll_rcc.h **** #define LL_RCC_I2S2_CLKSOURCE_SYSCLK      ((RCC_CCIPR2_I2S2SEL << 16U) | 0x00000000U)          /*!<
 434:Drivers/STM32G0xx_HAL_Driver/Inc/stm32g0xx_ll_rcc.h **** #define LL_RCC_I2S2_CLKSOURCE_PLL         ((RCC_CCIPR2_I2S2SEL << 16U) | RCC_CCIPR2_I2S2SEL_0)  /*!
 435:Drivers/STM32G0xx_HAL_Driver/Inc/stm32g0xx_ll_rcc.h **** #define LL_RCC_I2S2_CLKSOURCE_HSI         ((RCC_CCIPR2_I2S2SEL << 16U) | RCC_CCIPR2_I2S2SEL_1)  /*!
 436:Drivers/STM32G0xx_HAL_Driver/Inc/stm32g0xx_ll_rcc.h **** #define LL_RCC_I2S2_CLKSOURCE_PIN         ((RCC_CCIPR2_I2S2SEL << 16U) | RCC_CCIPR2_I2S2SEL)    /*!
 437:Drivers/STM32G0xx_HAL_Driver/Inc/stm32g0xx_ll_rcc.h **** #else
 438:Drivers/STM32G0xx_HAL_Driver/Inc/stm32g0xx_ll_rcc.h **** #define LL_RCC_I2S1_CLKSOURCE_SYSCLK      0x00000000U                  /*!< SYSCLK clock used as I2
 439:Drivers/STM32G0xx_HAL_Driver/Inc/stm32g0xx_ll_rcc.h **** #define LL_RCC_I2S1_CLKSOURCE_PLL         RCC_CCIPR_I2S1SEL_0          /*!< PLL clock used as I2S1 
 440:Drivers/STM32G0xx_HAL_Driver/Inc/stm32g0xx_ll_rcc.h **** #define LL_RCC_I2S1_CLKSOURCE_HSI         RCC_CCIPR_I2S1SEL_1          /*!< HSI clock used as I2S1 
 441:Drivers/STM32G0xx_HAL_Driver/Inc/stm32g0xx_ll_rcc.h **** #define LL_RCC_I2S1_CLKSOURCE_PIN         RCC_CCIPR_I2S1SEL            /*!< External clock used as 
 442:Drivers/STM32G0xx_HAL_Driver/Inc/stm32g0xx_ll_rcc.h **** #endif /* STM32G0C1xx || STM32G0B1xx || STM32G0B0xx */
 443:Drivers/STM32G0xx_HAL_Driver/Inc/stm32g0xx_ll_rcc.h **** 
 444:Drivers/STM32G0xx_HAL_Driver/Inc/stm32g0xx_ll_rcc.h **** /**
ARM GAS  /tmp/ccETUiog.s 			page 62


 445:Drivers/STM32G0xx_HAL_Driver/Inc/stm32g0xx_ll_rcc.h ****   * @}
 446:Drivers/STM32G0xx_HAL_Driver/Inc/stm32g0xx_ll_rcc.h ****   */
 447:Drivers/STM32G0xx_HAL_Driver/Inc/stm32g0xx_ll_rcc.h **** 
 448:Drivers/STM32G0xx_HAL_Driver/Inc/stm32g0xx_ll_rcc.h **** #if defined(RCC_CCIPR_TIM1SEL)
 449:Drivers/STM32G0xx_HAL_Driver/Inc/stm32g0xx_ll_rcc.h **** /** @defgroup RCC_LL_EC_TIMx_CLKSOURCE Peripheral TIM clock source selection
 450:Drivers/STM32G0xx_HAL_Driver/Inc/stm32g0xx_ll_rcc.h ****   * @{
 451:Drivers/STM32G0xx_HAL_Driver/Inc/stm32g0xx_ll_rcc.h ****   */
 452:Drivers/STM32G0xx_HAL_Driver/Inc/stm32g0xx_ll_rcc.h **** #define LL_RCC_TIM1_CLKSOURCE_PCLK1        (RCC_CCIPR_TIM1SEL   | (0x00000000U >> 16U))          /*
 453:Drivers/STM32G0xx_HAL_Driver/Inc/stm32g0xx_ll_rcc.h **** #define LL_RCC_TIM1_CLKSOURCE_PLL          (RCC_CCIPR_TIM1SEL   | (RCC_CCIPR_TIM1SEL >> 16U))    /*
 454:Drivers/STM32G0xx_HAL_Driver/Inc/stm32g0xx_ll_rcc.h **** /**
 455:Drivers/STM32G0xx_HAL_Driver/Inc/stm32g0xx_ll_rcc.h ****   * @}
 456:Drivers/STM32G0xx_HAL_Driver/Inc/stm32g0xx_ll_rcc.h ****   */
 457:Drivers/STM32G0xx_HAL_Driver/Inc/stm32g0xx_ll_rcc.h **** #endif /* RCC_CCIPR_TIM1SEL */
 458:Drivers/STM32G0xx_HAL_Driver/Inc/stm32g0xx_ll_rcc.h **** 
 459:Drivers/STM32G0xx_HAL_Driver/Inc/stm32g0xx_ll_rcc.h **** #if defined(RCC_CCIPR_TIM15SEL)
 460:Drivers/STM32G0xx_HAL_Driver/Inc/stm32g0xx_ll_rcc.h **** /** @addtogroup RCC_LL_EC_TIMx_CLKSOURCE
 461:Drivers/STM32G0xx_HAL_Driver/Inc/stm32g0xx_ll_rcc.h ****   * @{
 462:Drivers/STM32G0xx_HAL_Driver/Inc/stm32g0xx_ll_rcc.h ****   */
 463:Drivers/STM32G0xx_HAL_Driver/Inc/stm32g0xx_ll_rcc.h **** #define LL_RCC_TIM15_CLKSOURCE_PCLK1       (RCC_CCIPR_TIM15SEL  | (0x00000000U >> 16U))          /*
 464:Drivers/STM32G0xx_HAL_Driver/Inc/stm32g0xx_ll_rcc.h **** #define LL_RCC_TIM15_CLKSOURCE_PLL         (RCC_CCIPR_TIM15SEL  | (RCC_CCIPR_TIM15SEL >> 16U))   /*
 465:Drivers/STM32G0xx_HAL_Driver/Inc/stm32g0xx_ll_rcc.h **** /**
 466:Drivers/STM32G0xx_HAL_Driver/Inc/stm32g0xx_ll_rcc.h ****   * @}
 467:Drivers/STM32G0xx_HAL_Driver/Inc/stm32g0xx_ll_rcc.h ****   */
 468:Drivers/STM32G0xx_HAL_Driver/Inc/stm32g0xx_ll_rcc.h **** #endif /* RCC_CCIPR_TIM15SEL */
 469:Drivers/STM32G0xx_HAL_Driver/Inc/stm32g0xx_ll_rcc.h **** 
 470:Drivers/STM32G0xx_HAL_Driver/Inc/stm32g0xx_ll_rcc.h **** #if defined(LPTIM1) && defined(LPTIM2)
 471:Drivers/STM32G0xx_HAL_Driver/Inc/stm32g0xx_ll_rcc.h **** /** @defgroup RCC_LL_EC_LPTIMx_CLKSOURCE Peripheral LPTIM clock source selection
 472:Drivers/STM32G0xx_HAL_Driver/Inc/stm32g0xx_ll_rcc.h ****   * @{
 473:Drivers/STM32G0xx_HAL_Driver/Inc/stm32g0xx_ll_rcc.h ****   */
 474:Drivers/STM32G0xx_HAL_Driver/Inc/stm32g0xx_ll_rcc.h **** #define LL_RCC_LPTIM1_CLKSOURCE_PCLK1      (RCC_CCIPR_LPTIM1SEL | (0x00000000U >> 16U))           /
 475:Drivers/STM32G0xx_HAL_Driver/Inc/stm32g0xx_ll_rcc.h **** #define LL_RCC_LPTIM1_CLKSOURCE_LSI        (RCC_CCIPR_LPTIM1SEL | (RCC_CCIPR_LPTIM1SEL_0 >> 16U)) /
 476:Drivers/STM32G0xx_HAL_Driver/Inc/stm32g0xx_ll_rcc.h **** #define LL_RCC_LPTIM1_CLKSOURCE_HSI        (RCC_CCIPR_LPTIM1SEL | (RCC_CCIPR_LPTIM1SEL_1 >> 16U)) /
 477:Drivers/STM32G0xx_HAL_Driver/Inc/stm32g0xx_ll_rcc.h **** #define LL_RCC_LPTIM1_CLKSOURCE_LSE        (RCC_CCIPR_LPTIM1SEL | (RCC_CCIPR_LPTIM1SEL >> 16U))   /
 478:Drivers/STM32G0xx_HAL_Driver/Inc/stm32g0xx_ll_rcc.h **** #define LL_RCC_LPTIM2_CLKSOURCE_PCLK1      (RCC_CCIPR_LPTIM2SEL | (0x00000000U >> 16U))           /
 479:Drivers/STM32G0xx_HAL_Driver/Inc/stm32g0xx_ll_rcc.h **** #define LL_RCC_LPTIM2_CLKSOURCE_LSI        (RCC_CCIPR_LPTIM2SEL | (RCC_CCIPR_LPTIM2SEL_0 >> 16U)) /
 480:Drivers/STM32G0xx_HAL_Driver/Inc/stm32g0xx_ll_rcc.h **** #define LL_RCC_LPTIM2_CLKSOURCE_HSI        (RCC_CCIPR_LPTIM2SEL | (RCC_CCIPR_LPTIM2SEL_1 >> 16U)) /
 481:Drivers/STM32G0xx_HAL_Driver/Inc/stm32g0xx_ll_rcc.h **** #define LL_RCC_LPTIM2_CLKSOURCE_LSE        (RCC_CCIPR_LPTIM2SEL | (RCC_CCIPR_LPTIM2SEL >> 16U))   /
 482:Drivers/STM32G0xx_HAL_Driver/Inc/stm32g0xx_ll_rcc.h **** /**
 483:Drivers/STM32G0xx_HAL_Driver/Inc/stm32g0xx_ll_rcc.h ****   * @}
 484:Drivers/STM32G0xx_HAL_Driver/Inc/stm32g0xx_ll_rcc.h ****   */
 485:Drivers/STM32G0xx_HAL_Driver/Inc/stm32g0xx_ll_rcc.h **** #endif /* LPTIM1 && LPTIM2*/
 486:Drivers/STM32G0xx_HAL_Driver/Inc/stm32g0xx_ll_rcc.h **** 
 487:Drivers/STM32G0xx_HAL_Driver/Inc/stm32g0xx_ll_rcc.h **** #if defined(CEC)
 488:Drivers/STM32G0xx_HAL_Driver/Inc/stm32g0xx_ll_rcc.h **** /** @defgroup RCC_LL_EC_CEC_CLKSOURCE_HSI Peripheral CEC clock source selection
 489:Drivers/STM32G0xx_HAL_Driver/Inc/stm32g0xx_ll_rcc.h ****   * @{
 490:Drivers/STM32G0xx_HAL_Driver/Inc/stm32g0xx_ll_rcc.h ****   */
 491:Drivers/STM32G0xx_HAL_Driver/Inc/stm32g0xx_ll_rcc.h **** #define LL_RCC_CEC_CLKSOURCE_HSI_DIV488    0x00000000U                   /*!< HSI oscillator clock 
 492:Drivers/STM32G0xx_HAL_Driver/Inc/stm32g0xx_ll_rcc.h **** #define LL_RCC_CEC_CLKSOURCE_LSE           RCC_CCIPR_CECSEL              /*!< LSE oscillator clock 
 493:Drivers/STM32G0xx_HAL_Driver/Inc/stm32g0xx_ll_rcc.h **** 
 494:Drivers/STM32G0xx_HAL_Driver/Inc/stm32g0xx_ll_rcc.h **** /**
 495:Drivers/STM32G0xx_HAL_Driver/Inc/stm32g0xx_ll_rcc.h ****   * @}
 496:Drivers/STM32G0xx_HAL_Driver/Inc/stm32g0xx_ll_rcc.h ****   */
 497:Drivers/STM32G0xx_HAL_Driver/Inc/stm32g0xx_ll_rcc.h **** #endif /* CEC */
 498:Drivers/STM32G0xx_HAL_Driver/Inc/stm32g0xx_ll_rcc.h **** 
 499:Drivers/STM32G0xx_HAL_Driver/Inc/stm32g0xx_ll_rcc.h **** #if defined(FDCAN1) || defined(FDCAN2)
 500:Drivers/STM32G0xx_HAL_Driver/Inc/stm32g0xx_ll_rcc.h **** /** @defgroup RCC_LL_EC_FDCAN_CLKSOURCE_HSI Peripheral FDCAN clock source selection
 501:Drivers/STM32G0xx_HAL_Driver/Inc/stm32g0xx_ll_rcc.h ****   * @{
ARM GAS  /tmp/ccETUiog.s 			page 63


 502:Drivers/STM32G0xx_HAL_Driver/Inc/stm32g0xx_ll_rcc.h ****   */
 503:Drivers/STM32G0xx_HAL_Driver/Inc/stm32g0xx_ll_rcc.h **** #define LL_RCC_FDCAN_CLKSOURCE_PCLK1         0x00000000U                   /*!< PCLK1 oscillator cl
 504:Drivers/STM32G0xx_HAL_Driver/Inc/stm32g0xx_ll_rcc.h **** #define LL_RCC_FDCAN_CLKSOURCE_PLL           RCC_CCIPR2_FDCANSEL_0          /*!< PLL "Q"  oscillato
 505:Drivers/STM32G0xx_HAL_Driver/Inc/stm32g0xx_ll_rcc.h **** #define LL_RCC_FDCAN_CLKSOURCE_HSE           RCC_CCIPR2_FDCANSEL_1          /*!< HSE oscillator clo
 506:Drivers/STM32G0xx_HAL_Driver/Inc/stm32g0xx_ll_rcc.h **** 
 507:Drivers/STM32G0xx_HAL_Driver/Inc/stm32g0xx_ll_rcc.h **** /**
 508:Drivers/STM32G0xx_HAL_Driver/Inc/stm32g0xx_ll_rcc.h ****   * @}
 509:Drivers/STM32G0xx_HAL_Driver/Inc/stm32g0xx_ll_rcc.h ****   */
 510:Drivers/STM32G0xx_HAL_Driver/Inc/stm32g0xx_ll_rcc.h **** #endif /* FDCAN1 || FDCAN2 */
 511:Drivers/STM32G0xx_HAL_Driver/Inc/stm32g0xx_ll_rcc.h **** 
 512:Drivers/STM32G0xx_HAL_Driver/Inc/stm32g0xx_ll_rcc.h **** #if defined(RNG)
 513:Drivers/STM32G0xx_HAL_Driver/Inc/stm32g0xx_ll_rcc.h **** /** @defgroup RCC_LL_EC_RNG_CLKSOURCE Peripheral RNG clock source selection
 514:Drivers/STM32G0xx_HAL_Driver/Inc/stm32g0xx_ll_rcc.h ****   * @{
 515:Drivers/STM32G0xx_HAL_Driver/Inc/stm32g0xx_ll_rcc.h ****   */
 516:Drivers/STM32G0xx_HAL_Driver/Inc/stm32g0xx_ll_rcc.h **** #define LL_RCC_RNG_CLKSOURCE_NONE          0x00000000U                   /*!< No clock used as RNG 
 517:Drivers/STM32G0xx_HAL_Driver/Inc/stm32g0xx_ll_rcc.h **** #define LL_RCC_RNG_CLKSOURCE_HSI_DIV8      RCC_CCIPR_RNGSEL_0            /*!< HSI oscillator clock 
 518:Drivers/STM32G0xx_HAL_Driver/Inc/stm32g0xx_ll_rcc.h **** #define LL_RCC_RNG_CLKSOURCE_SYSCLK        RCC_CCIPR_RNGSEL_1            /*!< SYSCLK divided by 1 u
 519:Drivers/STM32G0xx_HAL_Driver/Inc/stm32g0xx_ll_rcc.h **** #define LL_RCC_RNG_CLKSOURCE_PLL           RCC_CCIPR_RNGSEL              /*!< PLL used as RNG clock
 520:Drivers/STM32G0xx_HAL_Driver/Inc/stm32g0xx_ll_rcc.h **** /**
 521:Drivers/STM32G0xx_HAL_Driver/Inc/stm32g0xx_ll_rcc.h ****   * @}
 522:Drivers/STM32G0xx_HAL_Driver/Inc/stm32g0xx_ll_rcc.h ****   */
 523:Drivers/STM32G0xx_HAL_Driver/Inc/stm32g0xx_ll_rcc.h **** #endif /* RNG */
 524:Drivers/STM32G0xx_HAL_Driver/Inc/stm32g0xx_ll_rcc.h **** 
 525:Drivers/STM32G0xx_HAL_Driver/Inc/stm32g0xx_ll_rcc.h **** #if defined(RNG)
 526:Drivers/STM32G0xx_HAL_Driver/Inc/stm32g0xx_ll_rcc.h **** /** @defgroup RCC_LL_EC_RNG_CLK_DIV Peripheral RNG clock division factor
 527:Drivers/STM32G0xx_HAL_Driver/Inc/stm32g0xx_ll_rcc.h ****   * @{
 528:Drivers/STM32G0xx_HAL_Driver/Inc/stm32g0xx_ll_rcc.h ****   */
 529:Drivers/STM32G0xx_HAL_Driver/Inc/stm32g0xx_ll_rcc.h **** #define LL_RCC_RNG_CLK_DIV1                0x00000000U                    /*!< RNG clock not divide
 530:Drivers/STM32G0xx_HAL_Driver/Inc/stm32g0xx_ll_rcc.h **** #define LL_RCC_RNG_CLK_DIV2                RCC_CCIPR_RNGDIV_0             /*!< RNG clock divided by
 531:Drivers/STM32G0xx_HAL_Driver/Inc/stm32g0xx_ll_rcc.h **** #define LL_RCC_RNG_CLK_DIV4                RCC_CCIPR_RNGDIV_1             /*!< RNG clock divided by
 532:Drivers/STM32G0xx_HAL_Driver/Inc/stm32g0xx_ll_rcc.h **** #define LL_RCC_RNG_CLK_DIV8                RCC_CCIPR_RNGDIV               /*!< RNG clock divided by
 533:Drivers/STM32G0xx_HAL_Driver/Inc/stm32g0xx_ll_rcc.h **** /**
 534:Drivers/STM32G0xx_HAL_Driver/Inc/stm32g0xx_ll_rcc.h ****   * @}
 535:Drivers/STM32G0xx_HAL_Driver/Inc/stm32g0xx_ll_rcc.h ****   */
 536:Drivers/STM32G0xx_HAL_Driver/Inc/stm32g0xx_ll_rcc.h **** #endif /* RNG */
 537:Drivers/STM32G0xx_HAL_Driver/Inc/stm32g0xx_ll_rcc.h **** 
 538:Drivers/STM32G0xx_HAL_Driver/Inc/stm32g0xx_ll_rcc.h **** #if defined(STM32G0C1xx) || defined(STM32G0B1xx) || defined(STM32G0B0xx)
 539:Drivers/STM32G0xx_HAL_Driver/Inc/stm32g0xx_ll_rcc.h **** /** @defgroup RCC_LL_EC_USB_CLKSOURCE  Peripheral USB clock source selection
 540:Drivers/STM32G0xx_HAL_Driver/Inc/stm32g0xx_ll_rcc.h ****   * @{
 541:Drivers/STM32G0xx_HAL_Driver/Inc/stm32g0xx_ll_rcc.h ****   */
 542:Drivers/STM32G0xx_HAL_Driver/Inc/stm32g0xx_ll_rcc.h **** #if defined(RCC_HSI48_SUPPORT)
 543:Drivers/STM32G0xx_HAL_Driver/Inc/stm32g0xx_ll_rcc.h **** #define LL_RCC_USB_CLKSOURCE_HSI48         0x00000000U            /*!< HSI48 clock used as USB cloc
 544:Drivers/STM32G0xx_HAL_Driver/Inc/stm32g0xx_ll_rcc.h **** #endif /* RCC_HSI48_SUPPORT */
 545:Drivers/STM32G0xx_HAL_Driver/Inc/stm32g0xx_ll_rcc.h **** #define LL_RCC_USB_CLKSOURCE_HSE           RCC_CCIPR2_USBSEL_0  /*!< PLL clock used as USB clock so
 546:Drivers/STM32G0xx_HAL_Driver/Inc/stm32g0xx_ll_rcc.h **** #define LL_RCC_USB_CLKSOURCE_PLL           RCC_CCIPR2_USBSEL_1  /*!< PLL clock used as USB clock so
 547:Drivers/STM32G0xx_HAL_Driver/Inc/stm32g0xx_ll_rcc.h **** /**
 548:Drivers/STM32G0xx_HAL_Driver/Inc/stm32g0xx_ll_rcc.h ****   * @}
 549:Drivers/STM32G0xx_HAL_Driver/Inc/stm32g0xx_ll_rcc.h ****   */
 550:Drivers/STM32G0xx_HAL_Driver/Inc/stm32g0xx_ll_rcc.h **** #endif /* STM32G0C1xx || STM32G0B1xx || STM32G0B0xx */
 551:Drivers/STM32G0xx_HAL_Driver/Inc/stm32g0xx_ll_rcc.h **** 
 552:Drivers/STM32G0xx_HAL_Driver/Inc/stm32g0xx_ll_rcc.h **** /** @defgroup RCC_LL_EC_ADC_CLKSOURCE Peripheral ADC clock source selection
 553:Drivers/STM32G0xx_HAL_Driver/Inc/stm32g0xx_ll_rcc.h ****   * @{
 554:Drivers/STM32G0xx_HAL_Driver/Inc/stm32g0xx_ll_rcc.h ****   */
 555:Drivers/STM32G0xx_HAL_Driver/Inc/stm32g0xx_ll_rcc.h **** #define LL_RCC_ADC_CLKSOURCE_SYSCLK        0x00000000U                   /*!< SYSCLK used as ADC cl
 556:Drivers/STM32G0xx_HAL_Driver/Inc/stm32g0xx_ll_rcc.h **** #define LL_RCC_ADC_CLKSOURCE_PLL           RCC_CCIPR_ADCSEL_0            /*!< PLL used as ADC clock
